

Microchip MPLAB XC8 Assembler V2.40 build 20220703182018 
                                                                                               Fri Aug 11 12:41:42 2023

Microchip MPLAB XC8 C Compiler v2.40 (Free license) build 20220703182018 Og1 
     1                           	processor	16F887
     2                           	pagewidth 120
     3                           	opt	flic
     4                           	psect	strings,global,class=STRING,delta=2,noexec
     5                           	psect	cinit,global,class=CODE,merge=1,delta=2
     6                           	psect	bssBANK0,global,class=BANK0,space=1,delta=1,noexec
     7                           	psect	clrtext,global,class=CODE,delta=2
     8                           	psect	cstackCOMMON,global,class=COMMON,space=1,delta=1,noexec
     9                           	psect	cstackBANK0,global,class=BANK0,space=1,delta=1,noexec
    10                           	psect	maintext,global,class=CODE,split=1,delta=2
    11                           	psect	text1,local,class=CODE,merge=1,delta=2
    12                           	psect	text2,local,class=CODE,merge=1,delta=2
    13                           	psect	text3,local,class=CODE,merge=1,delta=2
    14                           	psect	text4,local,class=CODE,merge=1,delta=2
    15                           	psect	text5,local,class=CODE,merge=1,delta=2
    16                           	psect	text6,local,class=CODE,merge=1,delta=2
    17                           	psect	text7,local,class=CODE,merge=1,delta=2
    18                           	psect	text8,local,class=CODE,merge=1,delta=2,group=1
    19                           	psect	text9,local,class=CODE,merge=1,delta=2,group=1
    20                           	psect	text10,local,class=CODE,merge=1,delta=2,group=1
    21                           	psect	text11,local,class=CODE,merge=1,delta=2
    22                           	psect	text12,local,class=CODE,merge=1,delta=2
    23                           	psect	text13,local,class=CODE,merge=1,delta=2
    24                           	psect	text14,local,class=CODE,merge=1,delta=2
    25                           	psect	text15,local,class=CODE,merge=1,delta=2
    26                           	psect	text16,local,class=CODE,merge=1,delta=2
    27                           	psect	text17,local,class=CODE,merge=1,delta=2
    28                           	psect	text18,local,class=CODE,merge=1,delta=2
    29                           	psect	text19,local,class=CODE,merge=1,delta=2
    30                           	psect	text20,local,class=CODE,merge=1,delta=2
    31                           	psect	intentry,global,class=CODE,delta=2
    32                           	psect	idloc,global,abs,ovrld,class=IDLOC,space=5,delta=2,noexec
    33                           	psect	config,global,abs,ovrld,class=CONFIG,space=4,delta=2,noexec
    34                           	dabs	1,0x7E,2
    35     0000                     
    36                           ; Generated 22/03/2023 GMT
    37                           ; 
    38                           ; Copyright © 2023, Microchip Technology Inc. and its subsidiaries ("Microchip")
    39                           ; All rights reserved.
    40                           ; 
    41                           ; This software is developed by Microchip Technology Inc. and its subsidiaries ("Microch
      +                          ip").
    42                           ; 
    43                           ; Redistribution and use in source and binary forms, with or without modification, are
    44                           ; permitted provided that the following conditions are met:
    45                           ; 
    46                           ;     1. Redistributions of source code must retain the above copyright notice, this lis
      +                          t of
    47                           ;        conditions and the following disclaimer.
    48                           ; 
    49                           ;     2. Redistributions in binary form must reproduce the above copyright notice, this 
      +                          list
    50                           ;        of conditions and the following disclaimer in the documentation and/or other
    51                           ;        materials provided with the distribution. Publication is not required when
    52                           ;        this file is used in an embedded application.
    53                           ; 
    54                           ;     3. Microchip's name may not be used to endorse or promote products derived from th
      +                          is
    55                           ;        software without specific prior written permission.
    56                           ; 
    57                           ; THIS SOFTWARE IS PROVIDED BY MICROCHIP "AS IS" AND ANY EXPRESS OR IMPLIED WARRANTIES,
    58                           ; INCLUDING, BUT NOT LIMITED TO, THE IMPLIED WARRANTIES OF MERCHANTABILITY AND FITNESS F
      +                          OR
    59                           ; PURPOSE ARE DISCLAIMED.  IN NO EVENT SHALL MICROCHIP BE LIABLE FOR ANY DIRECT, INDIREC
      +                          T,
    60                           ; INCIDENTAL, SPECIAL, EXEMPLARY, OR CONSEQUENTIAL DAMAGES (INCLUDING BUT NOT LIMITED TO
    61                           ; PROCUREMENT OF SUBSTITUTE GOODS OR SERVICES; LOSS OF USE, DATA OR PROFITS; OR BUSINESS
    62                           ; INTERRUPTION) HOWSOEVER CAUSED AND ON ANY THEORY OF LIABILITY, WHETHER IN CONTRACT, ST
      +                          RICT
    63                           ; LIABILITY, OR TORT (INCLUDING NEGLIGENCE OR OTHERWISE) ARISING IN ANY WAY OUT OF THE U
      +                          SE OF
    64                           ; THIS SOFTWARE, EVEN IF ADVISED OF THE POSSIBILITY OF SUCH DAMAGE.
    65                           ; 
    66                           ; 
    67                           ; Code-generator required, PIC16F887 Definitions
    68                           ; 
    69                           ; SFR Addresses
    70     0000                     	;# 
    71     0001                     	;# 
    72     0002                     	;# 
    73     0003                     	;# 
    74     0004                     	;# 
    75     0005                     	;# 
    76     0006                     	;# 
    77     0007                     	;# 
    78     0008                     	;# 
    79     0009                     	;# 
    80     000A                     	;# 
    81     000B                     	;# 
    82     000C                     	;# 
    83     000D                     	;# 
    84     000E                     	;# 
    85     000E                     	;# 
    86     000F                     	;# 
    87     0010                     	;# 
    88     0011                     	;# 
    89     0012                     	;# 
    90     0013                     	;# 
    91     0014                     	;# 
    92     0015                     	;# 
    93     0015                     	;# 
    94     0016                     	;# 
    95     0017                     	;# 
    96     0018                     	;# 
    97     0019                     	;# 
    98     001A                     	;# 
    99     001B                     	;# 
   100     001B                     	;# 
   101     001C                     	;# 
   102     001D                     	;# 
   103     001E                     	;# 
   104     001F                     	;# 
   105     0081                     	;# 
   106     0085                     	;# 
   107     0086                     	;# 
   108     0087                     	;# 
   109     0088                     	;# 
   110     0089                     	;# 
   111     008C                     	;# 
   112     008D                     	;# 
   113     008E                     	;# 
   114     008F                     	;# 
   115     0090                     	;# 
   116     0091                     	;# 
   117     0092                     	;# 
   118     0093                     	;# 
   119     0093                     	;# 
   120     0093                     	;# 
   121     0094                     	;# 
   122     0095                     	;# 
   123     0096                     	;# 
   124     0097                     	;# 
   125     0098                     	;# 
   126     0099                     	;# 
   127     009A                     	;# 
   128     009B                     	;# 
   129     009C                     	;# 
   130     009D                     	;# 
   131     009E                     	;# 
   132     009F                     	;# 
   133     0105                     	;# 
   134     0107                     	;# 
   135     0108                     	;# 
   136     0109                     	;# 
   137     010C                     	;# 
   138     010C                     	;# 
   139     010D                     	;# 
   140     010E                     	;# 
   141     010F                     	;# 
   142     0185                     	;# 
   143     0187                     	;# 
   144     0188                     	;# 
   145     0189                     	;# 
   146     018C                     	;# 
   147     018D                     	;# 
   148     0000                     	;# 
   149     0001                     	;# 
   150     0002                     	;# 
   151     0003                     	;# 
   152     0004                     	;# 
   153     0005                     	;# 
   154     0006                     	;# 
   155     0007                     	;# 
   156     0008                     	;# 
   157     0009                     	;# 
   158     000A                     	;# 
   159     000B                     	;# 
   160     000C                     	;# 
   161     000D                     	;# 
   162     000E                     	;# 
   163     000E                     	;# 
   164     000F                     	;# 
   165     0010                     	;# 
   166     0011                     	;# 
   167     0012                     	;# 
   168     0013                     	;# 
   169     0014                     	;# 
   170     0015                     	;# 
   171     0015                     	;# 
   172     0016                     	;# 
   173     0017                     	;# 
   174     0018                     	;# 
   175     0019                     	;# 
   176     001A                     	;# 
   177     001B                     	;# 
   178     001B                     	;# 
   179     001C                     	;# 
   180     001D                     	;# 
   181     001E                     	;# 
   182     001F                     	;# 
   183     0081                     	;# 
   184     0085                     	;# 
   185     0086                     	;# 
   186     0087                     	;# 
   187     0088                     	;# 
   188     0089                     	;# 
   189     008C                     	;# 
   190     008D                     	;# 
   191     008E                     	;# 
   192     008F                     	;# 
   193     0090                     	;# 
   194     0091                     	;# 
   195     0092                     	;# 
   196     0093                     	;# 
   197     0093                     	;# 
   198     0093                     	;# 
   199     0094                     	;# 
   200     0095                     	;# 
   201     0096                     	;# 
   202     0097                     	;# 
   203     0098                     	;# 
   204     0099                     	;# 
   205     009A                     	;# 
   206     009B                     	;# 
   207     009C                     	;# 
   208     009D                     	;# 
   209     009E                     	;# 
   210     009F                     	;# 
   211     0105                     	;# 
   212     0107                     	;# 
   213     0108                     	;# 
   214     0109                     	;# 
   215     010C                     	;# 
   216     010C                     	;# 
   217     010D                     	;# 
   218     010E                     	;# 
   219     010F                     	;# 
   220     0185                     	;# 
   221     0187                     	;# 
   222     0188                     	;# 
   223     0189                     	;# 
   224     018C                     	;# 
   225     018D                     	;# 
   226     0000                     	;# 
   227     0001                     	;# 
   228     0002                     	;# 
   229     0003                     	;# 
   230     0004                     	;# 
   231     0005                     	;# 
   232     0006                     	;# 
   233     0007                     	;# 
   234     0008                     	;# 
   235     0009                     	;# 
   236     000A                     	;# 
   237     000B                     	;# 
   238     000C                     	;# 
   239     000D                     	;# 
   240     000E                     	;# 
   241     000E                     	;# 
   242     000F                     	;# 
   243     0010                     	;# 
   244     0011                     	;# 
   245     0012                     	;# 
   246     0013                     	;# 
   247     0014                     	;# 
   248     0015                     	;# 
   249     0015                     	;# 
   250     0016                     	;# 
   251     0017                     	;# 
   252     0018                     	;# 
   253     0019                     	;# 
   254     001A                     	;# 
   255     001B                     	;# 
   256     001B                     	;# 
   257     001C                     	;# 
   258     001D                     	;# 
   259     001E                     	;# 
   260     001F                     	;# 
   261     0081                     	;# 
   262     0085                     	;# 
   263     0086                     	;# 
   264     0087                     	;# 
   265     0088                     	;# 
   266     0089                     	;# 
   267     008C                     	;# 
   268     008D                     	;# 
   269     008E                     	;# 
   270     008F                     	;# 
   271     0090                     	;# 
   272     0091                     	;# 
   273     0092                     	;# 
   274     0093                     	;# 
   275     0093                     	;# 
   276     0093                     	;# 
   277     0094                     	;# 
   278     0095                     	;# 
   279     0096                     	;# 
   280     0097                     	;# 
   281     0098                     	;# 
   282     0099                     	;# 
   283     009A                     	;# 
   284     009B                     	;# 
   285     009C                     	;# 
   286     009D                     	;# 
   287     009E                     	;# 
   288     009F                     	;# 
   289     0105                     	;# 
   290     0107                     	;# 
   291     0108                     	;# 
   292     0109                     	;# 
   293     010C                     	;# 
   294     010C                     	;# 
   295     010D                     	;# 
   296     010E                     	;# 
   297     010F                     	;# 
   298     0185                     	;# 
   299     0187                     	;# 
   300     0188                     	;# 
   301     0189                     	;# 
   302     018C                     	;# 
   303     018D                     	;# 
   304     0000                     	;# 
   305     0001                     	;# 
   306     0002                     	;# 
   307     0003                     	;# 
   308     0004                     	;# 
   309     0005                     	;# 
   310     0006                     	;# 
   311     0007                     	;# 
   312     0008                     	;# 
   313     0009                     	;# 
   314     000A                     	;# 
   315     000B                     	;# 
   316     000C                     	;# 
   317     000D                     	;# 
   318     000E                     	;# 
   319     000E                     	;# 
   320     000F                     	;# 
   321     0010                     	;# 
   322     0011                     	;# 
   323     0012                     	;# 
   324     0013                     	;# 
   325     0014                     	;# 
   326     0015                     	;# 
   327     0015                     	;# 
   328     0016                     	;# 
   329     0017                     	;# 
   330     0018                     	;# 
   331     0019                     	;# 
   332     001A                     	;# 
   333     001B                     	;# 
   334     001B                     	;# 
   335     001C                     	;# 
   336     001D                     	;# 
   337     001E                     	;# 
   338     001F                     	;# 
   339     0081                     	;# 
   340     0085                     	;# 
   341     0086                     	;# 
   342     0087                     	;# 
   343     0088                     	;# 
   344     0089                     	;# 
   345     008C                     	;# 
   346     008D                     	;# 
   347     008E                     	;# 
   348     008F                     	;# 
   349     0090                     	;# 
   350     0091                     	;# 
   351     0092                     	;# 
   352     0093                     	;# 
   353     0093                     	;# 
   354     0093                     	;# 
   355     0094                     	;# 
   356     0095                     	;# 
   357     0096                     	;# 
   358     0097                     	;# 
   359     0098                     	;# 
   360     0099                     	;# 
   361     009A                     	;# 
   362     009B                     	;# 
   363     009C                     	;# 
   364     009D                     	;# 
   365     009E                     	;# 
   366     009F                     	;# 
   367     0105                     	;# 
   368     0107                     	;# 
   369     0108                     	;# 
   370     0109                     	;# 
   371     010C                     	;# 
   372     010C                     	;# 
   373     010D                     	;# 
   374     010E                     	;# 
   375     010F                     	;# 
   376     0185                     	;# 
   377     0187                     	;# 
   378     0188                     	;# 
   379     0189                     	;# 
   380     018C                     	;# 
   381     018D                     	;# 
   382     0008                     _PORTD	set	8
   383     0006                     _PORTB	set	6
   384     0009                     _PORTEbits	set	9
   385     0006                     _PORTBbits	set	6
   386     000B                     _INTCONbits	set	11
   387     0013                     _SSPBUF	set	19
   388     0014                     _SSPCON	set	20
   389     004A                     _RE2	set	74
   390     0033                     _RB3	set	51
   391     0032                     _RB2	set	50
   392     0031                     _RB1	set	49
   393     0063                     _SSPIF	set	99
   394     005E                     _PEIE	set	94
   395     005F                     _GIE	set	95
   396     0095                     _WPUBbits	set	149
   397     0096                     _IOCBbits	set	150
   398     0081                     _OPTION_REGbits	set	129
   399     008F                     _OSCCONbits	set	143
   400     0089                     _TRISE	set	137
   401     0088                     _TRISD	set	136
   402     0086                     _TRISB	set	134
   403     0091                     _SSPCON2bits	set	145
   404     0087                     _TRISCbits	set	135
   405     0094                     _SSPSTAT	set	148
   406     0093                     _SSPADD	set	147
   407     0091                     _SSPCON2	set	145
   408     0463                     _SSPIE	set	1123
   409     043C                     _TRISC4	set	1084
   410     043B                     _TRISC3	set	1083
   411     0189                     _ANSELH	set	393
   412     0188                     _ANSEL	set	392
   413                           
   414                           	psect	strings
   415     0800                     __pstrings:
   416     0800                     stringtab:
   417     0800                     __stringtab:
   418     0800                     stringcode:	
   419                           ;	String table - string pointers are 1 byte each
   420                           
   421     0800                     stringdir:
   422     0800  3008               	movlw	high stringdir
   423     0801  008A               	movwf	10
   424     0802  0804               	movf	4,w
   425     0803  0A84               	incf	4,f
   426     0804  0782               	addwf	2,f
   427     0805                     __stringbase:
   428     0805  3400               	retlw	0
   429     0806                     __end_of__stringtab:
   430     0806                     STR_1:
   431     0806  3453               	retlw	83	;'S'
   432     0807  3431               	retlw	49	;'1'
   433     0808  343A               	retlw	58	;':'
   434     0809  3400               	retlw	0
   435                           
   436                           	psect	cinit
   437     000F                     start_initialization:	
   438                           ; #config settings
   439                           
   440     000F                     __initialization:
   441                           
   442                           ; Clear objects allocated to BANK0
   443     000F  1383               	bcf	3,7	;select IRP bank0
   444     0010  303F               	movlw	low __pbssBANK0
   445     0011  0084               	movwf	4
   446     0012  3055               	movlw	low (__pbssBANK0+22)
   447     0013  120A  158A  278A  120A  118A  	fcall	clear_ram0
   448     0018                     end_of_initialization:	
   449                           ;End of C runtime variable initialization code
   450                           
   451     0018                     __end_of__initialization:
   452     0018  0183               	clrf	3
   453     0019  120A  118A  281C   	ljmp	_main	;jump to C main() function
   454                           
   455                           	psect	bssBANK0
   456     003F                     __pbssBANK0:
   457     003F                     _contador:
   458     003F                     	ds	1
   459     0040                     _selector:
   460     0040                     	ds	1
   461     0041                     _escritura:
   462     0041                     	ds	1
   463     0042                     _yrL:
   464     0042                     	ds	1
   465     0043                     _yrH:
   466     0043                     	ds	1
   467     0044                     _year:
   468     0044                     	ds	1
   469     0045                     _monL:
   470     0045                     	ds	1
   471     0046                     _monH:
   472     0046                     	ds	1
   473     0047                     _month:
   474     0047                     	ds	1
   475     0048                     _dL:
   476     0048                     	ds	1
   477     0049                     _dH:
   478     0049                     	ds	1
   479     004A                     _day:
   480     004A                     	ds	1
   481     004B                     _hrL:
   482     004B                     	ds	1
   483     004C                     _hrH:
   484     004C                     	ds	1
   485     004D                     _hours:
   486     004D                     	ds	1
   487     004E                     _minL:
   488     004E                     	ds	1
   489     004F                     _minH:
   490     004F                     	ds	1
   491     0050                     _minutes:
   492     0050                     	ds	1
   493     0051                     _secL:
   494     0051                     	ds	1
   495     0052                     _secH:
   496     0052                     	ds	1
   497     0053                     _seconds:
   498     0053                     	ds	1
   499     0054                     _adc_val:
   500     0054                     	ds	1
   501                           
   502                           	psect	clrtext
   503     0F8A                     clear_ram0:	
   504                           ;	Called with FSR containing the base address, and
   505                           ;	W with the last address+1
   506                           
   507     0F8A  0064               	clrwdt	;clear the watchdog before getting into this loop
   508     0F8B                     clrloop0:
   509     0F8B  0180               	clrf	0	;clear RAM location pointed to by FSR
   510     0F8C  0A84               	incf	4,f	;increment pointer
   511     0F8D  0604               	xorwf	4,w	;XOR with final address
   512     0F8E  1903               	btfsc	3,2	;have we reached the end yet?
   513     0F8F  3400               	retlw	0	;all done for this memory range, return
   514     0F90  0604               	xorwf	4,w	;XOR again to restore value
   515     0F91  2F8B               	goto	clrloop0	;do the next byte
   516                           
   517                           	psect	cstackCOMMON
   518     0070                     __pcstackCOMMON:
   519     0070                     ?_setup:
   520     0070                     ?_Lcd_Clear:	
   521                           ; 1 bytes @ 0x0
   522                           
   523     0070                     ?_Lcd_Write_String:	
   524                           ; 1 bytes @ 0x0
   525                           
   526     0070                     ?_Lcd_Write_Char:	
   527                           ; 1 bytes @ 0x0
   528                           
   529     0070                     ?_Lcd_Init:	
   530                           ; 1 bytes @ 0x0
   531                           
   532     0070                     ?_I2C_Master_Wait:	
   533                           ; 1 bytes @ 0x0
   534                           
   535     0070                     ?_I2C_Master_Start:	
   536                           ; 1 bytes @ 0x0
   537                           
   538     0070                     ?_I2C_Master_RepeatedStart:	
   539                           ; 1 bytes @ 0x0
   540                           
   541     0070                     ?_I2C_Master_Stop:	
   542                           ; 1 bytes @ 0x0
   543                           
   544     0070                     ?_isr:	
   545                           ; 1 bytes @ 0x0
   546                           
   547     0070                     ??_isr:	
   548                           ; 1 bytes @ 0x0
   549                           
   550     0070                     ?_main:	
   551                           ; 1 bytes @ 0x0
   552                           
   553     0070                     ?_Lcd_Port:	
   554                           ; 1 bytes @ 0x0
   555                           
   556     0070                     ?_Lcd_Cmd:	
   557                           ; 1 bytes @ 0x0
   558                           
   559                           
   560                           ; 1 bytes @ 0x0
   561     0070                     	ds	2
   562     0072                     ??_I2C_Master_Wait:
   563     0072                     ??_I2C_Master_Start:	
   564                           ; 1 bytes @ 0x2
   565                           
   566     0072                     ??_I2C_Master_RepeatedStart:	
   567                           ; 1 bytes @ 0x2
   568                           
   569     0072                     ??_I2C_Master_Stop:	
   570                           ; 1 bytes @ 0x2
   571                           
   572     0072                     ?_I2C_Master_Write:	
   573                           ; 1 bytes @ 0x2
   574                           
   575     0072                     ??_Lcd_Port:	
   576                           ; 1 bytes @ 0x2
   577                           
   578     0072                     ?_I2C_Master_Read:	
   579                           ; 1 bytes @ 0x2
   580                           
   581     0072                     ?___awdiv:	
   582                           ; 2 bytes @ 0x2
   583                           
   584     0072                     ?___lldiv:	
   585                           ; 2 bytes @ 0x2
   586                           
   587     0072                     Lcd_Port@a:	
   588                           ; 4 bytes @ 0x2
   589                           
   590     0072                     I2C_Master_Write@d:	
   591                           ; 1 bytes @ 0x2
   592                           
   593     0072                     I2C_Master_Read@a:	
   594                           ; 2 bytes @ 0x2
   595                           
   596     0072                     ___awdiv@divisor:	
   597                           ; 2 bytes @ 0x2
   598                           
   599     0072                     ___lldiv@divisor:	
   600                           ; 2 bytes @ 0x2
   601                           
   602                           
   603                           ; 4 bytes @ 0x2
   604     0072                     	ds	1
   605     0073                     ??_Lcd_Write_Char:
   606     0073                     ??_Lcd_Cmd:	
   607                           ; 1 bytes @ 0x3
   608                           
   609                           
   610                           ; 1 bytes @ 0x3
   611     0073                     	ds	1
   612     0074                     ?_writeTime:
   613     0074                     ??_I2C_Master_Write:	
   614                           ; 1 bytes @ 0x4
   615                           
   616     0074                     ??_I2C_Master_Read:	
   617                           ; 1 bytes @ 0x4
   618                           
   619     0074                     writeTime@d:	
   620                           ; 1 bytes @ 0x4
   621                           
   622     0074                     Lcd_Write_Char@a:	
   623                           ; 1 bytes @ 0x4
   624                           
   625     0074                     ___awdiv@dividend:	
   626                           ; 1 bytes @ 0x4
   627                           
   628                           
   629                           ; 2 bytes @ 0x4
   630     0074                     	ds	1
   631     0075                     ??_writeTime:
   632     0075                     ??_Lcd_Write_String:	
   633                           ; 1 bytes @ 0x5
   634                           
   635     0075                     Lcd_Cmd@a:	
   636                           ; 1 bytes @ 0x5
   637                           
   638     0075                     Lcd_Write_String@i:	
   639                           ; 1 bytes @ 0x5
   640                           
   641                           
   642                           ; 2 bytes @ 0x5
   643     0075                     	ds	1
   644     0076                     ??_Lcd_Clear:
   645     0076                     ?_Lcd_Set_Cursor:	
   646                           ; 1 bytes @ 0x6
   647                           
   648     0076                     ??_Lcd_Init:	
   649                           ; 1 bytes @ 0x6
   650                           
   651     0076                     ??___awdiv:	
   652                           ; 1 bytes @ 0x6
   653                           
   654     0076                     Lcd_Set_Cursor@b:	
   655                           ; 1 bytes @ 0x6
   656                           
   657     0076                     I2C_Master_Read@temp:	
   658                           ; 1 bytes @ 0x6
   659                           
   660     0076                     ___lldiv@dividend:	
   661                           ; 2 bytes @ 0x6
   662                           
   663                           
   664                           ; 4 bytes @ 0x6
   665     0076                     	ds	1
   666     0077                     ??_Lcd_Set_Cursor:
   667     0077                     writeTime@dir:	
   668                           ; 1 bytes @ 0x7
   669                           
   670     0077                     Lcd_Set_Cursor@a:	
   671                           ; 1 bytes @ 0x7
   672                           
   673     0077                     Lcd_Write_String@a:	
   674                           ; 1 bytes @ 0x7
   675                           
   676     0077                     ___awdiv@counter:	
   677                           ; 1 bytes @ 0x7
   678                           
   679                           
   680                           ; 1 bytes @ 0x7
   681     0077                     	ds	1
   682     0078                     Lcd_Set_Cursor@temp:
   683     0078                     ___awdiv@sign:	
   684                           ; 1 bytes @ 0x8
   685                           
   686                           
   687                           ; 1 bytes @ 0x8
   688     0078                     	ds	1
   689     0079                     ___awdiv@quotient:
   690                           
   691                           ; 2 bytes @ 0x9
   692     0079                     	ds	1
   693     007A                     ??___lldiv:
   694                           
   695                           ; 1 bytes @ 0xA
   696     007A                     	ds	1
   697     007B                     ??_setup:
   698     007B                     ??___awmod:	
   699                           ; 1 bytes @ 0xB
   700                           
   701                           
   702                           ; 1 bytes @ 0xB
   703     007B                     	ds	1
   704                           
   705                           	psect	cstackBANK0
   706     0020                     __pcstackBANK0:
   707     0020                     ?___awmod:
   708     0020                     ___awmod@divisor:	
   709                           ; 2 bytes @ 0x0
   710                           
   711     0020                     ___lldiv@quotient:	
   712                           ; 2 bytes @ 0x0
   713                           
   714                           
   715                           ; 4 bytes @ 0x0
   716     0020                     	ds	2
   717     0022                     ___awmod@dividend:
   718                           
   719                           ; 2 bytes @ 0x2
   720     0022                     	ds	2
   721     0024                     ___lldiv@counter:
   722     0024                     ___awmod@counter:	
   723                           ; 1 bytes @ 0x4
   724                           
   725                           
   726                           ; 1 bytes @ 0x4
   727     0024                     	ds	1
   728     0025                     ?_I2C_Master_Init:
   729     0025                     ___awmod@sign:	
   730                           ; 1 bytes @ 0x5
   731                           
   732     0025                     I2C_Master_Init@c:	
   733                           ; 1 bytes @ 0x5
   734                           
   735                           
   736                           ; 4 bytes @ 0x5
   737     0025                     	ds	4
   738     0029                     ??_I2C_Master_Init:
   739                           
   740                           ; 1 bytes @ 0x9
   741     0029                     	ds	4
   742     002D                     ??_main:
   743                           
   744                           ; 1 bytes @ 0xD
   745     002D                     	ds	3
   746     0030                     main@segs:
   747                           
   748                           ; 2 bytes @ 0x10
   749     0030                     	ds	2
   750     0032                     main@mins:
   751                           
   752                           ; 2 bytes @ 0x12
   753     0032                     	ds	2
   754     0034                     main@hrs:
   755                           
   756                           ; 2 bytes @ 0x14
   757     0034                     	ds	2
   758     0036                     main@days:
   759                           
   760                           ; 2 bytes @ 0x16
   761     0036                     	ds	2
   762     0038                     main@months:
   763                           
   764                           ; 2 bytes @ 0x18
   765     0038                     	ds	2
   766     003A                     main@years:
   767                           
   768                           ; 2 bytes @ 0x1A
   769     003A                     	ds	2
   770     003C                     main@ADC:
   771                           
   772                           ; 3 bytes @ 0x1C
   773     003C                     	ds	3
   774                           
   775                           	psect	maintext
   776     001C                     __pmaintext:	
   777 ;;
   778 ;;Main: autosize = 0, tempsize = 3, incstack = 0, save=0
   779 ;;
   780 ;; *************** function _main *****************
   781 ;; Defined at:
   782 ;;		line 66 in file "C:/Users/Bryan Ortiz/Desktop/Digital2/LAB4/LAB4D2.X/LAB4.c"
   783 ;; Parameters:    Size  Location     Type
   784 ;;		None
   785 ;; Auto vars:     Size  Location     Type
   786 ;;  ADC             3   28[BANK0 ] unsigned char [3]
   787 ;;  years           2   26[BANK0 ] unsigned char [2]
   788 ;;  months          2   24[BANK0 ] unsigned char [2]
   789 ;;  days            2   22[BANK0 ] unsigned char [2]
   790 ;;  hrs             2   20[BANK0 ] unsigned char [2]
   791 ;;  mins            2   18[BANK0 ] unsigned char [2]
   792 ;;  segs            2   16[BANK0 ] unsigned char [2]
   793 ;; Return value:  Size  Location     Type
   794 ;;                  1    wreg      void 
   795 ;; Registers used:
   796 ;;		wreg, fsr0l, fsr0h, status,2, status,0, pclath, cstack
   797 ;; Tracked objects:
   798 ;;		On entry : B00/0
   799 ;;		On exit  : 0/0
   800 ;;		Unchanged: 0/0
   801 ;; Data sizes:     COMMON   BANK0   BANK1   BANK3   BANK2
   802 ;;      Params:         0       0       0       0       0
   803 ;;      Locals:         0      15       0       0       0
   804 ;;      Temps:          0       3       0       0       0
   805 ;;      Totals:         0      18       0       0       0
   806 ;;Total ram usage:       18 bytes
   807 ;; Hardware stack levels required when called: 5
   808 ;; This function calls:
   809 ;;		_I2C_Master_Read
   810 ;;		_I2C_Master_RepeatedStart
   811 ;;		_I2C_Master_Start
   812 ;;		_I2C_Master_Stop
   813 ;;		_I2C_Master_Write
   814 ;;		_Lcd_Clear
   815 ;;		_Lcd_Set_Cursor
   816 ;;		_Lcd_Write_Char
   817 ;;		_Lcd_Write_String
   818 ;;		___awdiv
   819 ;;		___awmod
   820 ;;		_setup
   821 ;;		_writeTime
   822 ;; This function is called by:
   823 ;;		Startup code after reset
   824 ;; This function uses a non-reentrant model
   825 ;;
   826                           
   827     001C                     _main:	
   828                           ;psect for function _main
   829                           
   830     001C                     l1702:	
   831                           ;incstack = 0
   832                           ; Regs used in _main: [wreg-fsr0h+status,2+status,0+pclath+cstack]
   833                           
   834                           
   835                           ;C:/Users/Bryan Ortiz/Desktop/Digital2/LAB4/LAB4D2.X/LAB4.c: 67:     setup();
   836     001C  120A  118A  26CB  120A  118A  	fcall	_setup
   837                           
   838                           ;C:/Users/Bryan Ortiz/Desktop/Digital2/LAB4/LAB4D2.X/LAB4.c: 68:     Lcd_Clear();
   839     0021  120A  158A  27C4  120A  118A  	fcall	_Lcd_Clear
   840     0026                     l1704:
   841                           
   842                           ;C:/Users/Bryan Ortiz/Desktop/Digital2/LAB4/LAB4D2.X/LAB4.c: 70:         if(escritura==1
      +                          ){
   843     0026  1283               	bcf	3,5	;RP0=0, select bank0
   844     0027  1303               	bcf	3,6	;RP1=0, select bank0
   845     0028  0341               	decf	_escritura,w
   846     0029  1D03               	btfss	3,2
   847     002A  282C               	goto	u1001
   848     002B  282D               	goto	u1000
   849     002C                     u1001:
   850     002C  2A4D               	goto	l1826
   851     002D                     u1000:
   852     002D                     l1706:
   853                           
   854                           ;C:/Users/Bryan Ortiz/Desktop/Digital2/LAB4/LAB4D2.X/LAB4.c: 71:             if(RB1==0){
   855     002D  1886               	btfsc	6,1	;volatile
   856     002E  2830               	goto	u1011
   857     002F  2831               	goto	u1010
   858     0030                     u1011:
   859     0030  2846               	goto	l1712
   860     0031                     u1010:
   861     0031                     l1708:
   862                           
   863                           ;C:/Users/Bryan Ortiz/Desktop/Digital2/LAB4/LAB4D2.X/LAB4.c: 72:                 _delay(
      +                          (unsigned long)((200)*(8000000/4000.0)));
   864     0031  3003               	movlw	3
   865     0032  1283               	bcf	3,5	;RP0=0, select bank0
   866     0033  1303               	bcf	3,6	;RP1=0, select bank0
   867     0034  00AF               	movwf	??_main+2
   868     0035  3008               	movlw	8
   869     0036  00AE               	movwf	??_main+1
   870     0037  3076               	movlw	118
   871     0038  00AD               	movwf	??_main
   872     0039                     u1297:
   873     0039  0BAD               	decfsz	??_main,f
   874     003A  2839               	goto	u1297
   875     003B  0BAE               	decfsz	??_main+1,f
   876     003C  2839               	goto	u1297
   877     003D  0BAF               	decfsz	??_main+2,f
   878     003E  2839               	goto	u1297
   879     003F  0000               	nop
   880     0040                     l1710:
   881                           
   882                           ;C:/Users/Bryan Ortiz/Desktop/Digital2/LAB4/LAB4D2.X/LAB4.c: 73:                 selecto
      +                          r++;
   883     0040  3001               	movlw	1
   884     0041  1283               	bcf	3,5	;RP0=0, select bank0
   885     0042  1303               	bcf	3,6	;RP1=0, select bank0
   886     0043  00AD               	movwf	??_main
   887     0044  082D               	movf	??_main,w
   888     0045  07C0               	addwf	_selector,f
   889     0046                     l1712:
   890                           
   891                           ;C:/Users/Bryan Ortiz/Desktop/Digital2/LAB4/LAB4D2.X/LAB4.c: 75:             if(RB2==0){
   892     0046  1906               	btfsc	6,2	;volatile
   893     0047  2849               	goto	u1021
   894     0048  284A               	goto	u1020
   895     0049                     u1021:
   896     0049  285F               	goto	l1718
   897     004A                     u1020:
   898     004A                     l1714:
   899                           
   900                           ;C:/Users/Bryan Ortiz/Desktop/Digital2/LAB4/LAB4D2.X/LAB4.c: 76:                 _delay(
      +                          (unsigned long)((200)*(8000000/4000.0)));
   901     004A  3003               	movlw	3
   902     004B  1283               	bcf	3,5	;RP0=0, select bank0
   903     004C  1303               	bcf	3,6	;RP1=0, select bank0
   904     004D  00AF               	movwf	??_main+2
   905     004E  3008               	movlw	8
   906     004F  00AE               	movwf	??_main+1
   907     0050  3076               	movlw	118
   908     0051  00AD               	movwf	??_main
   909     0052                     u1307:
   910     0052  0BAD               	decfsz	??_main,f
   911     0053  2852               	goto	u1307
   912     0054  0BAE               	decfsz	??_main+1,f
   913     0055  2852               	goto	u1307
   914     0056  0BAF               	decfsz	??_main+2,f
   915     0057  2852               	goto	u1307
   916     0058  0000               	nop
   917     0059                     l1716:
   918                           
   919                           ;C:/Users/Bryan Ortiz/Desktop/Digital2/LAB4/LAB4D2.X/LAB4.c: 77:                 contado
      +                          r++;
   920     0059  3001               	movlw	1
   921     005A  1283               	bcf	3,5	;RP0=0, select bank0
   922     005B  1303               	bcf	3,6	;RP1=0, select bank0
   923     005C  00AD               	movwf	??_main
   924     005D  082D               	movf	??_main,w
   925     005E  07BF               	addwf	_contador,f
   926     005F                     l1718:
   927                           
   928                           ;C:/Users/Bryan Ortiz/Desktop/Digital2/LAB4/LAB4D2.X/LAB4.c: 79:             if(RB3==0){
   929     005F  1986               	btfsc	6,3	;volatile
   930     0060  2862               	goto	u1031
   931     0061  2863               	goto	u1030
   932     0062                     u1031:
   933     0062  2876               	goto	l1724
   934     0063                     u1030:
   935     0063                     l1720:
   936                           
   937                           ;C:/Users/Bryan Ortiz/Desktop/Digital2/LAB4/LAB4D2.X/LAB4.c: 80:                 _delay(
      +                          (unsigned long)((200)*(8000000/4000.0)));
   938     0063  3003               	movlw	3
   939     0064  1283               	bcf	3,5	;RP0=0, select bank0
   940     0065  1303               	bcf	3,6	;RP1=0, select bank0
   941     0066  00AF               	movwf	??_main+2
   942     0067  3008               	movlw	8
   943     0068  00AE               	movwf	??_main+1
   944     0069  3076               	movlw	118
   945     006A  00AD               	movwf	??_main
   946     006B                     u1317:
   947     006B  0BAD               	decfsz	??_main,f
   948     006C  286B               	goto	u1317
   949     006D  0BAE               	decfsz	??_main+1,f
   950     006E  286B               	goto	u1317
   951     006F  0BAF               	decfsz	??_main+2,f
   952     0070  286B               	goto	u1317
   953     0071  0000               	nop
   954     0072                     l1722:
   955                           
   956                           ;C:/Users/Bryan Ortiz/Desktop/Digital2/LAB4/LAB4D2.X/LAB4.c: 81:                 contado
      +                          r--;
   957     0072  3001               	movlw	1
   958     0073  1283               	bcf	3,5	;RP0=0, select bank0
   959     0074  1303               	bcf	3,6	;RP1=0, select bank0
   960     0075  02BF               	subwf	_contador,f
   961     0076                     l1724:
   962                           
   963                           ;C:/Users/Bryan Ortiz/Desktop/Digital2/LAB4/LAB4D2.X/LAB4.c: 84:             if(selector
      +                          ==1){
   964     0076  0340               	decf	_selector,w
   965     0077  1D03               	btfss	3,2
   966     0078  287A               	goto	u1041
   967     0079  287B               	goto	u1040
   968     007A                     u1041:
   969     007A  28C0               	goto	l1740
   970     007B                     u1040:
   971     007B                     l1726:
   972                           
   973                           ;C:/Users/Bryan Ortiz/Desktop/Digital2/LAB4/LAB4D2.X/LAB4.c: 85:                 if(cont
      +                          ador>59){contador=0;}
   974     007B  303C               	movlw	60
   975     007C  023F               	subwf	_contador,w
   976     007D  1C03               	skipc
   977     007E  2880               	goto	u1051
   978     007F  2881               	goto	u1050
   979     0080                     u1051:
   980     0080  2882               	goto	l1730
   981     0081                     u1050:
   982     0081                     l1728:
   983     0081  01BF               	clrf	_contador
   984     0082                     l1730:
   985                           
   986                           ;C:/Users/Bryan Ortiz/Desktop/Digital2/LAB4/LAB4D2.X/LAB4.c: 86:                 seconds
      +                          =contador;
   987     0082  083F               	movf	_contador,w
   988     0083  00D3               	movwf	_seconds
   989     0084                     l1732:
   990                           
   991                           ;C:/Users/Bryan Ortiz/Desktop/Digital2/LAB4/LAB4D2.X/LAB4.c: 87:                 secH=se
      +                          conds/10;
   992     0084  300A               	movlw	10
   993     0085  00F2               	movwf	___awdiv@divisor
   994     0086  3000               	movlw	0
   995     0087  00F3               	movwf	___awdiv@divisor+1
   996     0088  0853               	movf	_seconds,w
   997     0089  00AD               	movwf	??_main
   998     008A  01AE               	clrf	??_main+1
   999     008B  082D               	movf	??_main,w
  1000     008C  00F4               	movwf	___awdiv@dividend
  1001     008D  082E               	movf	??_main+1,w
  1002     008E  00F5               	movwf	___awdiv@dividend+1
  1003     008F  120A  118A  25BC  120A  118A  	fcall	___awdiv
  1004     0094  0872               	movf	?___awdiv,w
  1005     0095  1283               	bcf	3,5	;RP0=0, select bank0
  1006     0096  1303               	bcf	3,6	;RP1=0, select bank0
  1007     0097  00D2               	movwf	_secH
  1008     0098                     l1734:
  1009                           
  1010                           ;C:/Users/Bryan Ortiz/Desktop/Digital2/LAB4/LAB4D2.X/LAB4.c: 88:                 secL=se
      +                          conds%10;
  1011     0098  300A               	movlw	10
  1012     0099  00A0               	movwf	___awmod@divisor
  1013     009A  3000               	movlw	0
  1014     009B  00A1               	movwf	___awmod@divisor+1
  1015     009C  0853               	movf	_seconds,w
  1016     009D  00AD               	movwf	??_main
  1017     009E  01AE               	clrf	??_main+1
  1018     009F  082D               	movf	??_main,w
  1019     00A0  00A2               	movwf	___awmod@dividend
  1020     00A1  082E               	movf	??_main+1,w
  1021     00A2  00A3               	movwf	___awmod@dividend+1
  1022     00A3  120A  118A  2623  120A  118A  	fcall	___awmod
  1023     00A8  1283               	bcf	3,5	;RP0=0, select bank0
  1024     00A9  1303               	bcf	3,6	;RP1=0, select bank0
  1025     00AA  0820               	movf	?___awmod,w
  1026     00AB  00D1               	movwf	_secL
  1027     00AC                     l1736:
  1028                           
  1029                           ;C:/Users/Bryan Ortiz/Desktop/Digital2/LAB4/LAB4D2.X/LAB4.c: 89:                 seconds
      +                           = secH<<4 | secL;
  1030     00AC  0852               	movf	_secH,w
  1031     00AD  00AD               	movwf	??_main
  1032     00AE  3003               	movlw	3
  1033     00AF                     u1065:
  1034     00AF  1003               	clrc
  1035     00B0  0DAD               	rlf	??_main,f
  1036     00B1  3EFF               	addlw	-1
  1037     00B2  1D03               	skipz
  1038     00B3  28AF               	goto	u1065
  1039     00B4  1003               	clrc
  1040     00B5  0D2D               	rlf	??_main,w
  1041     00B6  0451               	iorwf	_secL,w
  1042     00B7  00D3               	movwf	_seconds
  1043     00B8                     l1738:
  1044                           
  1045                           ;C:/Users/Bryan Ortiz/Desktop/Digital2/LAB4/LAB4D2.X/LAB4.c: 90:                 writeTi
      +                          me(0x00,seconds);
  1046     00B8  0853               	movf	_seconds,w
  1047     00B9  00F4               	movwf	writeTime@d
  1048     00BA  3000               	movlw	0
  1049     00BB  120A  118A  273E  120A  118A  	fcall	_writeTime
  1050     00C0                     l1740:
  1051                           
  1052                           ;C:/Users/Bryan Ortiz/Desktop/Digital2/LAB4/LAB4D2.X/LAB4.c: 92:             if(selector
      +                          ==2){
  1053     00C0  3002               	movlw	2
  1054     00C1  1283               	bcf	3,5	;RP0=0, select bank0
  1055     00C2  1303               	bcf	3,6	;RP1=0, select bank0
  1056     00C3  0640               	xorwf	_selector,w
  1057     00C4  1D03               	btfss	3,2
  1058     00C5  28C7               	goto	u1071
  1059     00C6  28C8               	goto	u1070
  1060     00C7                     u1071:
  1061     00C7  290D               	goto	l1756
  1062     00C8                     u1070:
  1063     00C8                     l1742:
  1064                           
  1065                           ;C:/Users/Bryan Ortiz/Desktop/Digital2/LAB4/LAB4D2.X/LAB4.c: 93:                 if(cont
      +                          ador>59){contador=0;}
  1066     00C8  303C               	movlw	60
  1067     00C9  023F               	subwf	_contador,w
  1068     00CA  1C03               	skipc
  1069     00CB  28CD               	goto	u1081
  1070     00CC  28CE               	goto	u1080
  1071     00CD                     u1081:
  1072     00CD  28CF               	goto	l1746
  1073     00CE                     u1080:
  1074     00CE                     l1744:
  1075     00CE  01BF               	clrf	_contador
  1076     00CF                     l1746:
  1077                           
  1078                           ;C:/Users/Bryan Ortiz/Desktop/Digital2/LAB4/LAB4D2.X/LAB4.c: 94:                 minutes
      +                          =contador;
  1079     00CF  083F               	movf	_contador,w
  1080     00D0  00D0               	movwf	_minutes
  1081     00D1                     l1748:
  1082                           
  1083                           ;C:/Users/Bryan Ortiz/Desktop/Digital2/LAB4/LAB4D2.X/LAB4.c: 95:                 minH=mi
      +                          nutes/10;
  1084     00D1  300A               	movlw	10
  1085     00D2  00F2               	movwf	___awdiv@divisor
  1086     00D3  3000               	movlw	0
  1087     00D4  00F3               	movwf	___awdiv@divisor+1
  1088     00D5  0850               	movf	_minutes,w
  1089     00D6  00AD               	movwf	??_main
  1090     00D7  01AE               	clrf	??_main+1
  1091     00D8  082D               	movf	??_main,w
  1092     00D9  00F4               	movwf	___awdiv@dividend
  1093     00DA  082E               	movf	??_main+1,w
  1094     00DB  00F5               	movwf	___awdiv@dividend+1
  1095     00DC  120A  118A  25BC  120A  118A  	fcall	___awdiv
  1096     00E1  0872               	movf	?___awdiv,w
  1097     00E2  1283               	bcf	3,5	;RP0=0, select bank0
  1098     00E3  1303               	bcf	3,6	;RP1=0, select bank0
  1099     00E4  00CF               	movwf	_minH
  1100     00E5                     l1750:
  1101                           
  1102                           ;C:/Users/Bryan Ortiz/Desktop/Digital2/LAB4/LAB4D2.X/LAB4.c: 96:                 minL=mi
      +                          nutes%10;
  1103     00E5  300A               	movlw	10
  1104     00E6  00A0               	movwf	___awmod@divisor
  1105     00E7  3000               	movlw	0
  1106     00E8  00A1               	movwf	___awmod@divisor+1
  1107     00E9  0850               	movf	_minutes,w
  1108     00EA  00AD               	movwf	??_main
  1109     00EB  01AE               	clrf	??_main+1
  1110     00EC  082D               	movf	??_main,w
  1111     00ED  00A2               	movwf	___awmod@dividend
  1112     00EE  082E               	movf	??_main+1,w
  1113     00EF  00A3               	movwf	___awmod@dividend+1
  1114     00F0  120A  118A  2623  120A  118A  	fcall	___awmod
  1115     00F5  1283               	bcf	3,5	;RP0=0, select bank0
  1116     00F6  1303               	bcf	3,6	;RP1=0, select bank0
  1117     00F7  0820               	movf	?___awmod,w
  1118     00F8  00CE               	movwf	_minL
  1119     00F9                     l1752:
  1120                           
  1121                           ;C:/Users/Bryan Ortiz/Desktop/Digital2/LAB4/LAB4D2.X/LAB4.c: 97:                 minutes
      +                           = minH<<4 | minL;
  1122     00F9  084F               	movf	_minH,w
  1123     00FA  00AD               	movwf	??_main
  1124     00FB  3003               	movlw	3
  1125     00FC                     u1095:
  1126     00FC  1003               	clrc
  1127     00FD  0DAD               	rlf	??_main,f
  1128     00FE  3EFF               	addlw	-1
  1129     00FF  1D03               	skipz
  1130     0100  28FC               	goto	u1095
  1131     0101  1003               	clrc
  1132     0102  0D2D               	rlf	??_main,w
  1133     0103  044E               	iorwf	_minL,w
  1134     0104  00D0               	movwf	_minutes
  1135     0105                     l1754:
  1136                           
  1137                           ;C:/Users/Bryan Ortiz/Desktop/Digital2/LAB4/LAB4D2.X/LAB4.c: 98:                 writeTi
      +                          me(0x01,minutes);
  1138     0105  0850               	movf	_minutes,w
  1139     0106  00F4               	movwf	writeTime@d
  1140     0107  3001               	movlw	1
  1141     0108  120A  118A  273E  120A  118A  	fcall	_writeTime
  1142     010D                     l1756:
  1143                           
  1144                           ;C:/Users/Bryan Ortiz/Desktop/Digital2/LAB4/LAB4D2.X/LAB4.c: 100:             if(selecto
      +                          r==3){
  1145     010D  3003               	movlw	3
  1146     010E  1283               	bcf	3,5	;RP0=0, select bank0
  1147     010F  1303               	bcf	3,6	;RP1=0, select bank0
  1148     0110  0640               	xorwf	_selector,w
  1149     0111  1D03               	btfss	3,2
  1150     0112  2914               	goto	u1101
  1151     0113  2915               	goto	u1100
  1152     0114                     u1101:
  1153     0114  295A               	goto	l1772
  1154     0115                     u1100:
  1155     0115                     l1758:
  1156                           
  1157                           ;C:/Users/Bryan Ortiz/Desktop/Digital2/LAB4/LAB4D2.X/LAB4.c: 101:                 if(con
      +                          tador>23){contador=0;}
  1158     0115  3018               	movlw	24
  1159     0116  023F               	subwf	_contador,w
  1160     0117  1C03               	skipc
  1161     0118  291A               	goto	u1111
  1162     0119  291B               	goto	u1110
  1163     011A                     u1111:
  1164     011A  291C               	goto	l1762
  1165     011B                     u1110:
  1166     011B                     l1760:
  1167     011B  01BF               	clrf	_contador
  1168     011C                     l1762:
  1169                           
  1170                           ;C:/Users/Bryan Ortiz/Desktop/Digital2/LAB4/LAB4D2.X/LAB4.c: 102:                 hours=
      +                          contador;
  1171     011C  083F               	movf	_contador,w
  1172     011D  00CD               	movwf	_hours
  1173     011E                     l1764:
  1174                           
  1175                           ;C:/Users/Bryan Ortiz/Desktop/Digital2/LAB4/LAB4D2.X/LAB4.c: 103:                 hrH=ho
      +                          urs/10;
  1176     011E  300A               	movlw	10
  1177     011F  00F2               	movwf	___awdiv@divisor
  1178     0120  3000               	movlw	0
  1179     0121  00F3               	movwf	___awdiv@divisor+1
  1180     0122  084D               	movf	_hours,w
  1181     0123  00AD               	movwf	??_main
  1182     0124  01AE               	clrf	??_main+1
  1183     0125  082D               	movf	??_main,w
  1184     0126  00F4               	movwf	___awdiv@dividend
  1185     0127  082E               	movf	??_main+1,w
  1186     0128  00F5               	movwf	___awdiv@dividend+1
  1187     0129  120A  118A  25BC  120A  118A  	fcall	___awdiv
  1188     012E  0872               	movf	?___awdiv,w
  1189     012F  1283               	bcf	3,5	;RP0=0, select bank0
  1190     0130  1303               	bcf	3,6	;RP1=0, select bank0
  1191     0131  00CC               	movwf	_hrH
  1192     0132                     l1766:
  1193                           
  1194                           ;C:/Users/Bryan Ortiz/Desktop/Digital2/LAB4/LAB4D2.X/LAB4.c: 104:                 hrL=ho
      +                          urs%10;
  1195     0132  300A               	movlw	10
  1196     0133  00A0               	movwf	___awmod@divisor
  1197     0134  3000               	movlw	0
  1198     0135  00A1               	movwf	___awmod@divisor+1
  1199     0136  084D               	movf	_hours,w
  1200     0137  00AD               	movwf	??_main
  1201     0138  01AE               	clrf	??_main+1
  1202     0139  082D               	movf	??_main,w
  1203     013A  00A2               	movwf	___awmod@dividend
  1204     013B  082E               	movf	??_main+1,w
  1205     013C  00A3               	movwf	___awmod@dividend+1
  1206     013D  120A  118A  2623  120A  118A  	fcall	___awmod
  1207     0142  1283               	bcf	3,5	;RP0=0, select bank0
  1208     0143  1303               	bcf	3,6	;RP1=0, select bank0
  1209     0144  0820               	movf	?___awmod,w
  1210     0145  00CB               	movwf	_hrL
  1211     0146                     l1768:
  1212                           
  1213                           ;C:/Users/Bryan Ortiz/Desktop/Digital2/LAB4/LAB4D2.X/LAB4.c: 105:                 hours 
      +                          = hrH<<4 | hrL;
  1214     0146  084C               	movf	_hrH,w
  1215     0147  00AD               	movwf	??_main
  1216     0148  3003               	movlw	3
  1217     0149                     u1125:
  1218     0149  1003               	clrc
  1219     014A  0DAD               	rlf	??_main,f
  1220     014B  3EFF               	addlw	-1
  1221     014C  1D03               	skipz
  1222     014D  2949               	goto	u1125
  1223     014E  1003               	clrc
  1224     014F  0D2D               	rlf	??_main,w
  1225     0150  044B               	iorwf	_hrL,w
  1226     0151  00CD               	movwf	_hours
  1227     0152                     l1770:
  1228                           
  1229                           ;C:/Users/Bryan Ortiz/Desktop/Digital2/LAB4/LAB4D2.X/LAB4.c: 106:                 writeT
      +                          ime(0x02,hours);
  1230     0152  084D               	movf	_hours,w
  1231     0153  00F4               	movwf	writeTime@d
  1232     0154  3002               	movlw	2
  1233     0155  120A  118A  273E  120A  118A  	fcall	_writeTime
  1234     015A                     l1772:
  1235                           
  1236                           ;C:/Users/Bryan Ortiz/Desktop/Digital2/LAB4/LAB4D2.X/LAB4.c: 108:             if(selecto
      +                          r==4){
  1237     015A  3004               	movlw	4
  1238     015B  1283               	bcf	3,5	;RP0=0, select bank0
  1239     015C  1303               	bcf	3,6	;RP1=0, select bank0
  1240     015D  0640               	xorwf	_selector,w
  1241     015E  1D03               	btfss	3,2
  1242     015F  2961               	goto	u1131
  1243     0160  2962               	goto	u1130
  1244     0161                     u1131:
  1245     0161  29A7               	goto	l1788
  1246     0162                     u1130:
  1247     0162                     l1774:
  1248                           
  1249                           ;C:/Users/Bryan Ortiz/Desktop/Digital2/LAB4/LAB4D2.X/LAB4.c: 109:                 if(con
      +                          tador>31){contador=0;}
  1250     0162  3020               	movlw	32
  1251     0163  023F               	subwf	_contador,w
  1252     0164  1C03               	skipc
  1253     0165  2967               	goto	u1141
  1254     0166  2968               	goto	u1140
  1255     0167                     u1141:
  1256     0167  2969               	goto	l1778
  1257     0168                     u1140:
  1258     0168                     l1776:
  1259     0168  01BF               	clrf	_contador
  1260     0169                     l1778:
  1261                           
  1262                           ;C:/Users/Bryan Ortiz/Desktop/Digital2/LAB4/LAB4D2.X/LAB4.c: 110:                 day=co
      +                          ntador;
  1263     0169  083F               	movf	_contador,w
  1264     016A  00CA               	movwf	_day
  1265     016B                     l1780:
  1266                           
  1267                           ;C:/Users/Bryan Ortiz/Desktop/Digital2/LAB4/LAB4D2.X/LAB4.c: 111:                 dH=day
      +                          /10;
  1268     016B  300A               	movlw	10
  1269     016C  00F2               	movwf	___awdiv@divisor
  1270     016D  3000               	movlw	0
  1271     016E  00F3               	movwf	___awdiv@divisor+1
  1272     016F  084A               	movf	_day,w
  1273     0170  00AD               	movwf	??_main
  1274     0171  01AE               	clrf	??_main+1
  1275     0172  082D               	movf	??_main,w
  1276     0173  00F4               	movwf	___awdiv@dividend
  1277     0174  082E               	movf	??_main+1,w
  1278     0175  00F5               	movwf	___awdiv@dividend+1
  1279     0176  120A  118A  25BC  120A  118A  	fcall	___awdiv
  1280     017B  0872               	movf	?___awdiv,w
  1281     017C  1283               	bcf	3,5	;RP0=0, select bank0
  1282     017D  1303               	bcf	3,6	;RP1=0, select bank0
  1283     017E  00C9               	movwf	_dH
  1284     017F                     l1782:
  1285                           
  1286                           ;C:/Users/Bryan Ortiz/Desktop/Digital2/LAB4/LAB4D2.X/LAB4.c: 112:                 dL=day
      +                          %10;
  1287     017F  300A               	movlw	10
  1288     0180  00A0               	movwf	___awmod@divisor
  1289     0181  3000               	movlw	0
  1290     0182  00A1               	movwf	___awmod@divisor+1
  1291     0183  084A               	movf	_day,w
  1292     0184  00AD               	movwf	??_main
  1293     0185  01AE               	clrf	??_main+1
  1294     0186  082D               	movf	??_main,w
  1295     0187  00A2               	movwf	___awmod@dividend
  1296     0188  082E               	movf	??_main+1,w
  1297     0189  00A3               	movwf	___awmod@dividend+1
  1298     018A  120A  118A  2623  120A  118A  	fcall	___awmod
  1299     018F  1283               	bcf	3,5	;RP0=0, select bank0
  1300     0190  1303               	bcf	3,6	;RP1=0, select bank0
  1301     0191  0820               	movf	?___awmod,w
  1302     0192  00C8               	movwf	_dL
  1303     0193                     l1784:
  1304                           
  1305                           ;C:/Users/Bryan Ortiz/Desktop/Digital2/LAB4/LAB4D2.X/LAB4.c: 113:                 day = 
      +                          dH<<4 | dL;
  1306     0193  0849               	movf	_dH,w
  1307     0194  00AD               	movwf	??_main
  1308     0195  3003               	movlw	3
  1309     0196                     u1155:
  1310     0196  1003               	clrc
  1311     0197  0DAD               	rlf	??_main,f
  1312     0198  3EFF               	addlw	-1
  1313     0199  1D03               	skipz
  1314     019A  2996               	goto	u1155
  1315     019B  1003               	clrc
  1316     019C  0D2D               	rlf	??_main,w
  1317     019D  0448               	iorwf	_dL,w
  1318     019E  00CA               	movwf	_day
  1319     019F                     l1786:
  1320                           
  1321                           ;C:/Users/Bryan Ortiz/Desktop/Digital2/LAB4/LAB4D2.X/LAB4.c: 114:                 writeT
      +                          ime(0x04,day);
  1322     019F  084A               	movf	_day,w
  1323     01A0  00F4               	movwf	writeTime@d
  1324     01A1  3004               	movlw	4
  1325     01A2  120A  118A  273E  120A  118A  	fcall	_writeTime
  1326     01A7                     l1788:
  1327                           
  1328                           ;C:/Users/Bryan Ortiz/Desktop/Digital2/LAB4/LAB4D2.X/LAB4.c: 116:             if(selecto
      +                          r==5){
  1329     01A7  3005               	movlw	5
  1330     01A8  1283               	bcf	3,5	;RP0=0, select bank0
  1331     01A9  1303               	bcf	3,6	;RP1=0, select bank0
  1332     01AA  0640               	xorwf	_selector,w
  1333     01AB  1D03               	btfss	3,2
  1334     01AC  29AE               	goto	u1161
  1335     01AD  29AF               	goto	u1160
  1336     01AE                     u1161:
  1337     01AE  29F4               	goto	l1804
  1338     01AF                     u1160:
  1339     01AF                     l1790:
  1340                           
  1341                           ;C:/Users/Bryan Ortiz/Desktop/Digital2/LAB4/LAB4D2.X/LAB4.c: 117:                 if(con
      +                          tador>12){contador=0;}
  1342     01AF  300D               	movlw	13
  1343     01B0  023F               	subwf	_contador,w
  1344     01B1  1C03               	skipc
  1345     01B2  29B4               	goto	u1171
  1346     01B3  29B5               	goto	u1170
  1347     01B4                     u1171:
  1348     01B4  29B6               	goto	l1794
  1349     01B5                     u1170:
  1350     01B5                     l1792:
  1351     01B5  01BF               	clrf	_contador
  1352     01B6                     l1794:
  1353                           
  1354                           ;C:/Users/Bryan Ortiz/Desktop/Digital2/LAB4/LAB4D2.X/LAB4.c: 118:                 month=
      +                          contador;
  1355     01B6  083F               	movf	_contador,w
  1356     01B7  00C7               	movwf	_month
  1357     01B8                     l1796:
  1358                           
  1359                           ;C:/Users/Bryan Ortiz/Desktop/Digital2/LAB4/LAB4D2.X/LAB4.c: 119:                 monH=m
      +                          onth/10;
  1360     01B8  300A               	movlw	10
  1361     01B9  00F2               	movwf	___awdiv@divisor
  1362     01BA  3000               	movlw	0
  1363     01BB  00F3               	movwf	___awdiv@divisor+1
  1364     01BC  0847               	movf	_month,w
  1365     01BD  00AD               	movwf	??_main
  1366     01BE  01AE               	clrf	??_main+1
  1367     01BF  082D               	movf	??_main,w
  1368     01C0  00F4               	movwf	___awdiv@dividend
  1369     01C1  082E               	movf	??_main+1,w
  1370     01C2  00F5               	movwf	___awdiv@dividend+1
  1371     01C3  120A  118A  25BC  120A  118A  	fcall	___awdiv
  1372     01C8  0872               	movf	?___awdiv,w
  1373     01C9  1283               	bcf	3,5	;RP0=0, select bank0
  1374     01CA  1303               	bcf	3,6	;RP1=0, select bank0
  1375     01CB  00C6               	movwf	_monH
  1376     01CC                     l1798:
  1377                           
  1378                           ;C:/Users/Bryan Ortiz/Desktop/Digital2/LAB4/LAB4D2.X/LAB4.c: 120:                 monL=m
      +                          onth%10;
  1379     01CC  300A               	movlw	10
  1380     01CD  00A0               	movwf	___awmod@divisor
  1381     01CE  3000               	movlw	0
  1382     01CF  00A1               	movwf	___awmod@divisor+1
  1383     01D0  0847               	movf	_month,w
  1384     01D1  00AD               	movwf	??_main
  1385     01D2  01AE               	clrf	??_main+1
  1386     01D3  082D               	movf	??_main,w
  1387     01D4  00A2               	movwf	___awmod@dividend
  1388     01D5  082E               	movf	??_main+1,w
  1389     01D6  00A3               	movwf	___awmod@dividend+1
  1390     01D7  120A  118A  2623  120A  118A  	fcall	___awmod
  1391     01DC  1283               	bcf	3,5	;RP0=0, select bank0
  1392     01DD  1303               	bcf	3,6	;RP1=0, select bank0
  1393     01DE  0820               	movf	?___awmod,w
  1394     01DF  00C5               	movwf	_monL
  1395     01E0                     l1800:
  1396                           
  1397                           ;C:/Users/Bryan Ortiz/Desktop/Digital2/LAB4/LAB4D2.X/LAB4.c: 121:                 month 
      +                          = monH<<4 | monL;
  1398     01E0  0846               	movf	_monH,w
  1399     01E1  00AD               	movwf	??_main
  1400     01E2  3003               	movlw	3
  1401     01E3                     u1185:
  1402     01E3  1003               	clrc
  1403     01E4  0DAD               	rlf	??_main,f
  1404     01E5  3EFF               	addlw	-1
  1405     01E6  1D03               	skipz
  1406     01E7  29E3               	goto	u1185
  1407     01E8  1003               	clrc
  1408     01E9  0D2D               	rlf	??_main,w
  1409     01EA  0445               	iorwf	_monL,w
  1410     01EB  00C7               	movwf	_month
  1411     01EC                     l1802:
  1412                           
  1413                           ;C:/Users/Bryan Ortiz/Desktop/Digital2/LAB4/LAB4D2.X/LAB4.c: 122:                 writeT
      +                          ime(0x05,month);
  1414     01EC  0847               	movf	_month,w
  1415     01ED  00F4               	movwf	writeTime@d
  1416     01EE  3005               	movlw	5
  1417     01EF  120A  118A  273E  120A  118A  	fcall	_writeTime
  1418     01F4                     l1804:
  1419                           
  1420                           ;C:/Users/Bryan Ortiz/Desktop/Digital2/LAB4/LAB4D2.X/LAB4.c: 124:             if(selecto
      +                          r==6){
  1421     01F4  3006               	movlw	6
  1422     01F5  1283               	bcf	3,5	;RP0=0, select bank0
  1423     01F6  1303               	bcf	3,6	;RP1=0, select bank0
  1424     01F7  0640               	xorwf	_selector,w
  1425     01F8  1D03               	btfss	3,2
  1426     01F9  29FB               	goto	u1191
  1427     01FA  29FC               	goto	u1190
  1428     01FB                     u1191:
  1429     01FB  2A41               	goto	l1820
  1430     01FC                     u1190:
  1431     01FC                     l1806:
  1432                           
  1433                           ;C:/Users/Bryan Ortiz/Desktop/Digital2/LAB4/LAB4D2.X/LAB4.c: 125:                 if(con
      +                          tador>99){contador=0;}
  1434     01FC  3064               	movlw	100
  1435     01FD  023F               	subwf	_contador,w
  1436     01FE  1C03               	skipc
  1437     01FF  2A01               	goto	u1201
  1438     0200  2A02               	goto	u1200
  1439     0201                     u1201:
  1440     0201  2A03               	goto	l1810
  1441     0202                     u1200:
  1442     0202                     l1808:
  1443     0202  01BF               	clrf	_contador
  1444     0203                     l1810:
  1445                           
  1446                           ;C:/Users/Bryan Ortiz/Desktop/Digital2/LAB4/LAB4D2.X/LAB4.c: 126:                 year=c
      +                          ontador;
  1447     0203  083F               	movf	_contador,w
  1448     0204  00C4               	movwf	_year
  1449     0205                     l1812:
  1450                           
  1451                           ;C:/Users/Bryan Ortiz/Desktop/Digital2/LAB4/LAB4D2.X/LAB4.c: 127:                 yrH=ye
      +                          ar/10;
  1452     0205  300A               	movlw	10
  1453     0206  00F2               	movwf	___awdiv@divisor
  1454     0207  3000               	movlw	0
  1455     0208  00F3               	movwf	___awdiv@divisor+1
  1456     0209  0844               	movf	_year,w
  1457     020A  00AD               	movwf	??_main
  1458     020B  01AE               	clrf	??_main+1
  1459     020C  082D               	movf	??_main,w
  1460     020D  00F4               	movwf	___awdiv@dividend
  1461     020E  082E               	movf	??_main+1,w
  1462     020F  00F5               	movwf	___awdiv@dividend+1
  1463     0210  120A  118A  25BC  120A  118A  	fcall	___awdiv
  1464     0215  0872               	movf	?___awdiv,w
  1465     0216  1283               	bcf	3,5	;RP0=0, select bank0
  1466     0217  1303               	bcf	3,6	;RP1=0, select bank0
  1467     0218  00C3               	movwf	_yrH
  1468     0219                     l1814:
  1469                           
  1470                           ;C:/Users/Bryan Ortiz/Desktop/Digital2/LAB4/LAB4D2.X/LAB4.c: 128:                 yrL=ye
      +                          ar%10;
  1471     0219  300A               	movlw	10
  1472     021A  00A0               	movwf	___awmod@divisor
  1473     021B  3000               	movlw	0
  1474     021C  00A1               	movwf	___awmod@divisor+1
  1475     021D  0844               	movf	_year,w
  1476     021E  00AD               	movwf	??_main
  1477     021F  01AE               	clrf	??_main+1
  1478     0220  082D               	movf	??_main,w
  1479     0221  00A2               	movwf	___awmod@dividend
  1480     0222  082E               	movf	??_main+1,w
  1481     0223  00A3               	movwf	___awmod@dividend+1
  1482     0224  120A  118A  2623  120A  118A  	fcall	___awmod
  1483     0229  1283               	bcf	3,5	;RP0=0, select bank0
  1484     022A  1303               	bcf	3,6	;RP1=0, select bank0
  1485     022B  0820               	movf	?___awmod,w
  1486     022C  00C2               	movwf	_yrL
  1487     022D                     l1816:
  1488                           
  1489                           ;C:/Users/Bryan Ortiz/Desktop/Digital2/LAB4/LAB4D2.X/LAB4.c: 129:                 year =
      +                           yrH<<4 | yrL;
  1490     022D  0843               	movf	_yrH,w
  1491     022E  00AD               	movwf	??_main
  1492     022F  3003               	movlw	3
  1493     0230                     u1215:
  1494     0230  1003               	clrc
  1495     0231  0DAD               	rlf	??_main,f
  1496     0232  3EFF               	addlw	-1
  1497     0233  1D03               	skipz
  1498     0234  2A30               	goto	u1215
  1499     0235  1003               	clrc
  1500     0236  0D2D               	rlf	??_main,w
  1501     0237  0442               	iorwf	_yrL,w
  1502     0238  00C4               	movwf	_year
  1503     0239                     l1818:
  1504                           
  1505                           ;C:/Users/Bryan Ortiz/Desktop/Digital2/LAB4/LAB4D2.X/LAB4.c: 130:                 writeT
      +                          ime(0x06,year);
  1506     0239  0844               	movf	_year,w
  1507     023A  00F4               	movwf	writeTime@d
  1508     023B  3006               	movlw	6
  1509     023C  120A  118A  273E  120A  118A  	fcall	_writeTime
  1510     0241                     l1820:
  1511                           
  1512                           ;C:/Users/Bryan Ortiz/Desktop/Digital2/LAB4/LAB4D2.X/LAB4.c: 132:             if(selecto
      +                          r==7){
  1513     0241  3007               	movlw	7
  1514     0242  1283               	bcf	3,5	;RP0=0, select bank0
  1515     0243  1303               	bcf	3,6	;RP1=0, select bank0
  1516     0244  0640               	xorwf	_selector,w
  1517     0245  1D03               	btfss	3,2
  1518     0246  2A48               	goto	u1221
  1519     0247  2A49               	goto	u1220
  1520     0248                     u1221:
  1521     0248  2A4D               	goto	l1826
  1522     0249                     u1220:
  1523     0249                     l1822:
  1524                           
  1525                           ;C:/Users/Bryan Ortiz/Desktop/Digital2/LAB4/LAB4D2.X/LAB4.c: 133:                 select
      +                          or=0;
  1526     0249  01C0               	clrf	_selector
  1527                           
  1528                           ;C:/Users/Bryan Ortiz/Desktop/Digital2/LAB4/LAB4D2.X/LAB4.c: 134:                 contad
      +                          or=0;
  1529     024A  01BF               	clrf	_contador
  1530                           
  1531                           ;C:/Users/Bryan Ortiz/Desktop/Digital2/LAB4/LAB4D2.X/LAB4.c: 135:                 escrit
      +                          ura=0;
  1532     024B  01C1               	clrf	_escritura
  1533     024C                     l1824:
  1534                           
  1535                           ;C:/Users/Bryan Ortiz/Desktop/Digital2/LAB4/LAB4D2.X/LAB4.c: 136:                 PORTEb
      +                          its.RE0=0;
  1536     024C  1009               	bcf	9,0	;volatile
  1537     024D                     l1826:
  1538                           
  1539                           ;C:/Users/Bryan Ortiz/Desktop/Digital2/LAB4/LAB4D2.X/LAB4.c: 142:         I2C_Master_Sta
      +                          rt();
  1540     024D  120A  158A  279B  120A  118A  	fcall	_I2C_Master_Start
  1541     0252                     l1828:
  1542                           
  1543                           ;C:/Users/Bryan Ortiz/Desktop/Digital2/LAB4/LAB4D2.X/LAB4.c: 143:         I2C_Master_Wri
      +                          te(0x51);
  1544     0252  3051               	movlw	81
  1545     0253  00F2               	movwf	I2C_Master_Write@d
  1546     0254  3000               	movlw	0
  1547     0255  00F3               	movwf	I2C_Master_Write@d+1
  1548     0256  120A  158A  27AD  120A  118A  	fcall	_I2C_Master_Write
  1549     025B                     l1830:
  1550                           
  1551                           ;C:/Users/Bryan Ortiz/Desktop/Digital2/LAB4/LAB4D2.X/LAB4.c: 144:         adc_val = I2C_
      +                          Master_Read(0);
  1552     025B  3000               	movlw	0
  1553     025C  00F2               	movwf	I2C_Master_Read@a
  1554     025D  00F3               	movwf	I2C_Master_Read@a+1
  1555     025E  120A  118A  2774  120A  118A  	fcall	_I2C_Master_Read
  1556     0263  0872               	movf	?_I2C_Master_Read,w
  1557     0264  1283               	bcf	3,5	;RP0=0, select bank0
  1558     0265  1303               	bcf	3,6	;RP1=0, select bank0
  1559     0266  00D4               	movwf	_adc_val
  1560     0267                     l1832:
  1561                           
  1562                           ;C:/Users/Bryan Ortiz/Desktop/Digital2/LAB4/LAB4D2.X/LAB4.c: 145:         I2C_Master_Sto
      +                          p();
  1563     0267  120A  158A  27A4  120A  118A  	fcall	_I2C_Master_Stop
  1564     026C                     l1834:
  1565                           
  1566                           ;C:/Users/Bryan Ortiz/Desktop/Digital2/LAB4/LAB4D2.X/LAB4.c: 148:         I2C_Master_Sta
      +                          rt();
  1567     026C  120A  158A  279B  120A  118A  	fcall	_I2C_Master_Start
  1568     0271                     l1836:
  1569                           
  1570                           ;C:/Users/Bryan Ortiz/Desktop/Digital2/LAB4/LAB4D2.X/LAB4.c: 149:         I2C_Master_Wri
      +                          te(0xD0);
  1571     0271  30D0               	movlw	208
  1572     0272  00F2               	movwf	I2C_Master_Write@d
  1573     0273  3000               	movlw	0
  1574     0274  00F3               	movwf	I2C_Master_Write@d+1
  1575     0275  120A  158A  27AD  120A  118A  	fcall	_I2C_Master_Write
  1576     027A                     l1838:
  1577                           
  1578                           ;C:/Users/Bryan Ortiz/Desktop/Digital2/LAB4/LAB4D2.X/LAB4.c: 150:         I2C_Master_Wri
      +                          te(0x00);
  1579     027A  3000               	movlw	0
  1580     027B  00F2               	movwf	I2C_Master_Write@d
  1581     027C  00F3               	movwf	I2C_Master_Write@d+1
  1582     027D  120A  158A  27AD  120A  118A  	fcall	_I2C_Master_Write
  1583     0282                     l1840:
  1584                           
  1585                           ;C:/Users/Bryan Ortiz/Desktop/Digital2/LAB4/LAB4D2.X/LAB4.c: 151:         I2C_Master_Rep
      +                          eatedStart();
  1586     0282  120A  158A  2792  120A  118A  	fcall	_I2C_Master_RepeatedStart
  1587     0287                     l1842:
  1588                           
  1589                           ;C:/Users/Bryan Ortiz/Desktop/Digital2/LAB4/LAB4D2.X/LAB4.c: 152:         I2C_Master_Wri
      +                          te(0xD1);
  1590     0287  30D1               	movlw	209
  1591     0288  00F2               	movwf	I2C_Master_Write@d
  1592     0289  3000               	movlw	0
  1593     028A  00F3               	movwf	I2C_Master_Write@d+1
  1594     028B  120A  158A  27AD  120A  118A  	fcall	_I2C_Master_Write
  1595     0290                     l1844:
  1596                           
  1597                           ;C:/Users/Bryan Ortiz/Desktop/Digital2/LAB4/LAB4D2.X/LAB4.c: 153:         seconds = I2C_
      +                          Master_Read(0);
  1598     0290  3000               	movlw	0
  1599     0291  00F2               	movwf	I2C_Master_Read@a
  1600     0292  00F3               	movwf	I2C_Master_Read@a+1
  1601     0293  120A  118A  2774  120A  118A  	fcall	_I2C_Master_Read
  1602     0298  0872               	movf	?_I2C_Master_Read,w
  1603     0299  1283               	bcf	3,5	;RP0=0, select bank0
  1604     029A  1303               	bcf	3,6	;RP1=0, select bank0
  1605     029B  00D3               	movwf	_seconds
  1606     029C                     l1846:
  1607                           
  1608                           ;C:/Users/Bryan Ortiz/Desktop/Digital2/LAB4/LAB4D2.X/LAB4.c: 154:         I2C_Master_Sto
      +                          p();
  1609     029C  120A  158A  27A4  120A  118A  	fcall	_I2C_Master_Stop
  1610     02A1                     l1848:
  1611                           
  1612                           ;C:/Users/Bryan Ortiz/Desktop/Digital2/LAB4/LAB4D2.X/LAB4.c: 155:         secH= (seconds
      +                           & 0xF0)>>4;
  1613     02A1  1283               	bcf	3,5	;RP0=0, select bank0
  1614     02A2  1303               	bcf	3,6	;RP1=0, select bank0
  1615     02A3  0853               	movf	_seconds,w
  1616     02A4  00AD               	movwf	??_main
  1617     02A5  3004               	movlw	4
  1618     02A6                     u1235:
  1619     02A6  1003               	clrc
  1620     02A7  0CAD               	rrf	??_main,f
  1621     02A8  3EFF               	addlw	-1
  1622     02A9  1D03               	skipz
  1623     02AA  2AA6               	goto	u1235
  1624     02AB  082D               	movf	??_main,w
  1625     02AC  390F               	andlw	15
  1626     02AD  00D2               	movwf	_secH
  1627     02AE                     l1850:
  1628                           
  1629                           ;C:/Users/Bryan Ortiz/Desktop/Digital2/LAB4/LAB4D2.X/LAB4.c: 156:         secL= seconds 
      +                          & 0x0F;
  1630     02AE  0853               	movf	_seconds,w
  1631     02AF  390F               	andlw	15
  1632     02B0  00D1               	movwf	_secL
  1633     02B1                     l1852:
  1634                           
  1635                           ;C:/Users/Bryan Ortiz/Desktop/Digital2/LAB4/LAB4D2.X/LAB4.c: 158:         I2C_Master_Sta
      +                          rt();
  1636     02B1  120A  158A  279B  120A  118A  	fcall	_I2C_Master_Start
  1637     02B6                     l1854:
  1638                           
  1639                           ;C:/Users/Bryan Ortiz/Desktop/Digital2/LAB4/LAB4D2.X/LAB4.c: 159:         I2C_Master_Wri
      +                          te(0xD0);
  1640     02B6  30D0               	movlw	208
  1641     02B7  00F2               	movwf	I2C_Master_Write@d
  1642     02B8  3000               	movlw	0
  1643     02B9  00F3               	movwf	I2C_Master_Write@d+1
  1644     02BA  120A  158A  27AD  120A  118A  	fcall	_I2C_Master_Write
  1645     02BF                     l1856:
  1646                           
  1647                           ;C:/Users/Bryan Ortiz/Desktop/Digital2/LAB4/LAB4D2.X/LAB4.c: 160:         I2C_Master_Wri
      +                          te(0x01);
  1648     02BF  3001               	movlw	1
  1649     02C0  00F2               	movwf	I2C_Master_Write@d
  1650     02C1  3000               	movlw	0
  1651     02C2  00F3               	movwf	I2C_Master_Write@d+1
  1652     02C3  120A  158A  27AD  120A  118A  	fcall	_I2C_Master_Write
  1653     02C8                     l1858:
  1654                           
  1655                           ;C:/Users/Bryan Ortiz/Desktop/Digital2/LAB4/LAB4D2.X/LAB4.c: 161:         I2C_Master_Rep
      +                          eatedStart();
  1656     02C8  120A  158A  2792  120A  118A  	fcall	_I2C_Master_RepeatedStart
  1657     02CD                     l1860:
  1658                           
  1659                           ;C:/Users/Bryan Ortiz/Desktop/Digital2/LAB4/LAB4D2.X/LAB4.c: 162:         I2C_Master_Wri
      +                          te(0xD1);
  1660     02CD  30D1               	movlw	209
  1661     02CE  00F2               	movwf	I2C_Master_Write@d
  1662     02CF  3000               	movlw	0
  1663     02D0  00F3               	movwf	I2C_Master_Write@d+1
  1664     02D1  120A  158A  27AD  120A  118A  	fcall	_I2C_Master_Write
  1665     02D6                     l1862:
  1666                           
  1667                           ;C:/Users/Bryan Ortiz/Desktop/Digital2/LAB4/LAB4D2.X/LAB4.c: 163:         minutes = I2C_
      +                          Master_Read(0);
  1668     02D6  3000               	movlw	0
  1669     02D7  00F2               	movwf	I2C_Master_Read@a
  1670     02D8  00F3               	movwf	I2C_Master_Read@a+1
  1671     02D9  120A  118A  2774  120A  118A  	fcall	_I2C_Master_Read
  1672     02DE  0872               	movf	?_I2C_Master_Read,w
  1673     02DF  1283               	bcf	3,5	;RP0=0, select bank0
  1674     02E0  1303               	bcf	3,6	;RP1=0, select bank0
  1675     02E1  00D0               	movwf	_minutes
  1676     02E2                     l1864:
  1677                           
  1678                           ;C:/Users/Bryan Ortiz/Desktop/Digital2/LAB4/LAB4D2.X/LAB4.c: 164:         I2C_Master_Sto
      +                          p();
  1679     02E2  120A  158A  27A4  120A  118A  	fcall	_I2C_Master_Stop
  1680     02E7                     l1866:
  1681                           
  1682                           ;C:/Users/Bryan Ortiz/Desktop/Digital2/LAB4/LAB4D2.X/LAB4.c: 165:         minH= (minutes
      +                           & 0xF0)>>4;
  1683     02E7  1283               	bcf	3,5	;RP0=0, select bank0
  1684     02E8  1303               	bcf	3,6	;RP1=0, select bank0
  1685     02E9  0850               	movf	_minutes,w
  1686     02EA  00AD               	movwf	??_main
  1687     02EB  3004               	movlw	4
  1688     02EC                     u1245:
  1689     02EC  1003               	clrc
  1690     02ED  0CAD               	rrf	??_main,f
  1691     02EE  3EFF               	addlw	-1
  1692     02EF  1D03               	skipz
  1693     02F0  2AEC               	goto	u1245
  1694     02F1  082D               	movf	??_main,w
  1695     02F2  390F               	andlw	15
  1696     02F3  00CF               	movwf	_minH
  1697     02F4                     l1868:
  1698                           
  1699                           ;C:/Users/Bryan Ortiz/Desktop/Digital2/LAB4/LAB4D2.X/LAB4.c: 166:         minL= minutes 
      +                          & 0x0F;
  1700     02F4  0850               	movf	_minutes,w
  1701     02F5  390F               	andlw	15
  1702     02F6  00CE               	movwf	_minL
  1703     02F7                     l1870:
  1704                           
  1705                           ;C:/Users/Bryan Ortiz/Desktop/Digital2/LAB4/LAB4D2.X/LAB4.c: 168:         I2C_Master_Sta
      +                          rt();
  1706     02F7  120A  158A  279B  120A  118A  	fcall	_I2C_Master_Start
  1707     02FC                     l1872:
  1708                           
  1709                           ;C:/Users/Bryan Ortiz/Desktop/Digital2/LAB4/LAB4D2.X/LAB4.c: 169:         I2C_Master_Wri
      +                          te(0xD0);
  1710     02FC  30D0               	movlw	208
  1711     02FD  00F2               	movwf	I2C_Master_Write@d
  1712     02FE  3000               	movlw	0
  1713     02FF  00F3               	movwf	I2C_Master_Write@d+1
  1714     0300  120A  158A  27AD  120A  118A  	fcall	_I2C_Master_Write
  1715     0305                     l1874:
  1716                           
  1717                           ;C:/Users/Bryan Ortiz/Desktop/Digital2/LAB4/LAB4D2.X/LAB4.c: 170:         I2C_Master_Wri
      +                          te(0x02);
  1718     0305  3002               	movlw	2
  1719     0306  00F2               	movwf	I2C_Master_Write@d
  1720     0307  3000               	movlw	0
  1721     0308  00F3               	movwf	I2C_Master_Write@d+1
  1722     0309  120A  158A  27AD  120A  118A  	fcall	_I2C_Master_Write
  1723     030E                     l1876:
  1724                           
  1725                           ;C:/Users/Bryan Ortiz/Desktop/Digital2/LAB4/LAB4D2.X/LAB4.c: 171:         I2C_Master_Rep
      +                          eatedStart();
  1726     030E  120A  158A  2792  120A  118A  	fcall	_I2C_Master_RepeatedStart
  1727     0313                     l1878:
  1728                           
  1729                           ;C:/Users/Bryan Ortiz/Desktop/Digital2/LAB4/LAB4D2.X/LAB4.c: 172:         I2C_Master_Wri
      +                          te(0xD1);
  1730     0313  30D1               	movlw	209
  1731     0314  00F2               	movwf	I2C_Master_Write@d
  1732     0315  3000               	movlw	0
  1733     0316  00F3               	movwf	I2C_Master_Write@d+1
  1734     0317  120A  158A  27AD  120A  118A  	fcall	_I2C_Master_Write
  1735     031C                     l1880:
  1736                           
  1737                           ;C:/Users/Bryan Ortiz/Desktop/Digital2/LAB4/LAB4D2.X/LAB4.c: 173:         hours = I2C_Ma
      +                          ster_Read(0);
  1738     031C  3000               	movlw	0
  1739     031D  00F2               	movwf	I2C_Master_Read@a
  1740     031E  00F3               	movwf	I2C_Master_Read@a+1
  1741     031F  120A  118A  2774  120A  118A  	fcall	_I2C_Master_Read
  1742     0324  0872               	movf	?_I2C_Master_Read,w
  1743     0325  1283               	bcf	3,5	;RP0=0, select bank0
  1744     0326  1303               	bcf	3,6	;RP1=0, select bank0
  1745     0327  00CD               	movwf	_hours
  1746     0328                     l1882:
  1747                           
  1748                           ;C:/Users/Bryan Ortiz/Desktop/Digital2/LAB4/LAB4D2.X/LAB4.c: 174:         I2C_Master_Sto
      +                          p();
  1749     0328  120A  158A  27A4  120A  118A  	fcall	_I2C_Master_Stop
  1750     032D                     l1884:
  1751                           
  1752                           ;C:/Users/Bryan Ortiz/Desktop/Digital2/LAB4/LAB4D2.X/LAB4.c: 175:         hrH= (hours & 
      +                          0xF0)>>4;
  1753     032D  1283               	bcf	3,5	;RP0=0, select bank0
  1754     032E  1303               	bcf	3,6	;RP1=0, select bank0
  1755     032F  084D               	movf	_hours,w
  1756     0330  00AD               	movwf	??_main
  1757     0331  3004               	movlw	4
  1758     0332                     u1255:
  1759     0332  1003               	clrc
  1760     0333  0CAD               	rrf	??_main,f
  1761     0334  3EFF               	addlw	-1
  1762     0335  1D03               	skipz
  1763     0336  2B32               	goto	u1255
  1764     0337  082D               	movf	??_main,w
  1765     0338  390F               	andlw	15
  1766     0339  00CC               	movwf	_hrH
  1767     033A                     l1886:
  1768                           
  1769                           ;C:/Users/Bryan Ortiz/Desktop/Digital2/LAB4/LAB4D2.X/LAB4.c: 176:         hrL= hours & 0
      +                          x0F;
  1770     033A  084D               	movf	_hours,w
  1771     033B  390F               	andlw	15
  1772     033C  00CB               	movwf	_hrL
  1773     033D                     l1888:
  1774                           
  1775                           ;C:/Users/Bryan Ortiz/Desktop/Digital2/LAB4/LAB4D2.X/LAB4.c: 178:         I2C_Master_Sta
      +                          rt();
  1776     033D  120A  158A  279B  120A  118A  	fcall	_I2C_Master_Start
  1777     0342                     l1890:
  1778                           
  1779                           ;C:/Users/Bryan Ortiz/Desktop/Digital2/LAB4/LAB4D2.X/LAB4.c: 179:         I2C_Master_Wri
      +                          te(0xD0);
  1780     0342  30D0               	movlw	208
  1781     0343  00F2               	movwf	I2C_Master_Write@d
  1782     0344  3000               	movlw	0
  1783     0345  00F3               	movwf	I2C_Master_Write@d+1
  1784     0346  120A  158A  27AD  120A  118A  	fcall	_I2C_Master_Write
  1785     034B                     l1892:
  1786                           
  1787                           ;C:/Users/Bryan Ortiz/Desktop/Digital2/LAB4/LAB4D2.X/LAB4.c: 180:         I2C_Master_Wri
      +                          te(0x04);
  1788     034B  3004               	movlw	4
  1789     034C  00F2               	movwf	I2C_Master_Write@d
  1790     034D  3000               	movlw	0
  1791     034E  00F3               	movwf	I2C_Master_Write@d+1
  1792     034F  120A  158A  27AD  120A  118A  	fcall	_I2C_Master_Write
  1793     0354                     l1894:
  1794                           
  1795                           ;C:/Users/Bryan Ortiz/Desktop/Digital2/LAB4/LAB4D2.X/LAB4.c: 181:         I2C_Master_Rep
      +                          eatedStart();
  1796     0354  120A  158A  2792  120A  118A  	fcall	_I2C_Master_RepeatedStart
  1797     0359                     l1896:
  1798                           
  1799                           ;C:/Users/Bryan Ortiz/Desktop/Digital2/LAB4/LAB4D2.X/LAB4.c: 182:         I2C_Master_Wri
      +                          te(0xD1);
  1800     0359  30D1               	movlw	209
  1801     035A  00F2               	movwf	I2C_Master_Write@d
  1802     035B  3000               	movlw	0
  1803     035C  00F3               	movwf	I2C_Master_Write@d+1
  1804     035D  120A  158A  27AD  120A  118A  	fcall	_I2C_Master_Write
  1805     0362                     l1898:
  1806                           
  1807                           ;C:/Users/Bryan Ortiz/Desktop/Digital2/LAB4/LAB4D2.X/LAB4.c: 183:         day = I2C_Mast
      +                          er_Read(0);
  1808     0362  3000               	movlw	0
  1809     0363  00F2               	movwf	I2C_Master_Read@a
  1810     0364  00F3               	movwf	I2C_Master_Read@a+1
  1811     0365  120A  118A  2774  120A  118A  	fcall	_I2C_Master_Read
  1812     036A  0872               	movf	?_I2C_Master_Read,w
  1813     036B  1283               	bcf	3,5	;RP0=0, select bank0
  1814     036C  1303               	bcf	3,6	;RP1=0, select bank0
  1815     036D  00CA               	movwf	_day
  1816     036E                     l1900:
  1817                           
  1818                           ;C:/Users/Bryan Ortiz/Desktop/Digital2/LAB4/LAB4D2.X/LAB4.c: 184:         I2C_Master_Sto
      +                          p();
  1819     036E  120A  158A  27A4  120A  118A  	fcall	_I2C_Master_Stop
  1820     0373                     l1902:
  1821                           
  1822                           ;C:/Users/Bryan Ortiz/Desktop/Digital2/LAB4/LAB4D2.X/LAB4.c: 185:         dH= (day & 0xF
      +                          0)>>4;
  1823     0373  1283               	bcf	3,5	;RP0=0, select bank0
  1824     0374  1303               	bcf	3,6	;RP1=0, select bank0
  1825     0375  084A               	movf	_day,w
  1826     0376  00AD               	movwf	??_main
  1827     0377  3004               	movlw	4
  1828     0378                     u1265:
  1829     0378  1003               	clrc
  1830     0379  0CAD               	rrf	??_main,f
  1831     037A  3EFF               	addlw	-1
  1832     037B  1D03               	skipz
  1833     037C  2B78               	goto	u1265
  1834     037D  082D               	movf	??_main,w
  1835     037E  390F               	andlw	15
  1836     037F  00C9               	movwf	_dH
  1837     0380                     l1904:
  1838                           
  1839                           ;C:/Users/Bryan Ortiz/Desktop/Digital2/LAB4/LAB4D2.X/LAB4.c: 186:         dL= day & 0x0F
      +                          ;
  1840     0380  084A               	movf	_day,w
  1841     0381  390F               	andlw	15
  1842     0382  00C8               	movwf	_dL
  1843     0383                     l1906:
  1844                           
  1845                           ;C:/Users/Bryan Ortiz/Desktop/Digital2/LAB4/LAB4D2.X/LAB4.c: 188:         I2C_Master_Sta
      +                          rt();
  1846     0383  120A  158A  279B  120A  118A  	fcall	_I2C_Master_Start
  1847     0388                     l1908:
  1848                           
  1849                           ;C:/Users/Bryan Ortiz/Desktop/Digital2/LAB4/LAB4D2.X/LAB4.c: 189:         I2C_Master_Wri
      +                          te(0xD0);
  1850     0388  30D0               	movlw	208
  1851     0389  00F2               	movwf	I2C_Master_Write@d
  1852     038A  3000               	movlw	0
  1853     038B  00F3               	movwf	I2C_Master_Write@d+1
  1854     038C  120A  158A  27AD  120A  118A  	fcall	_I2C_Master_Write
  1855     0391                     l1910:
  1856                           
  1857                           ;C:/Users/Bryan Ortiz/Desktop/Digital2/LAB4/LAB4D2.X/LAB4.c: 190:         I2C_Master_Wri
      +                          te(0x05);
  1858     0391  3005               	movlw	5
  1859     0392  00F2               	movwf	I2C_Master_Write@d
  1860     0393  3000               	movlw	0
  1861     0394  00F3               	movwf	I2C_Master_Write@d+1
  1862     0395  120A  158A  27AD  120A  118A  	fcall	_I2C_Master_Write
  1863     039A                     l1912:
  1864                           
  1865                           ;C:/Users/Bryan Ortiz/Desktop/Digital2/LAB4/LAB4D2.X/LAB4.c: 191:         I2C_Master_Rep
      +                          eatedStart();
  1866     039A  120A  158A  2792  120A  118A  	fcall	_I2C_Master_RepeatedStart
  1867     039F                     l1914:
  1868                           
  1869                           ;C:/Users/Bryan Ortiz/Desktop/Digital2/LAB4/LAB4D2.X/LAB4.c: 192:         I2C_Master_Wri
      +                          te(0xD1);
  1870     039F  30D1               	movlw	209
  1871     03A0  00F2               	movwf	I2C_Master_Write@d
  1872     03A1  3000               	movlw	0
  1873     03A2  00F3               	movwf	I2C_Master_Write@d+1
  1874     03A3  120A  158A  27AD  120A  118A  	fcall	_I2C_Master_Write
  1875     03A8                     l1916:
  1876                           
  1877                           ;C:/Users/Bryan Ortiz/Desktop/Digital2/LAB4/LAB4D2.X/LAB4.c: 193:         month = I2C_Ma
      +                          ster_Read(0);
  1878     03A8  3000               	movlw	0
  1879     03A9  00F2               	movwf	I2C_Master_Read@a
  1880     03AA  00F3               	movwf	I2C_Master_Read@a+1
  1881     03AB  120A  118A  2774  120A  118A  	fcall	_I2C_Master_Read
  1882     03B0  0872               	movf	?_I2C_Master_Read,w
  1883     03B1  1283               	bcf	3,5	;RP0=0, select bank0
  1884     03B2  1303               	bcf	3,6	;RP1=0, select bank0
  1885     03B3  00C7               	movwf	_month
  1886     03B4                     l1918:
  1887                           
  1888                           ;C:/Users/Bryan Ortiz/Desktop/Digital2/LAB4/LAB4D2.X/LAB4.c: 194:         I2C_Master_Sto
      +                          p();
  1889     03B4  120A  158A  27A4  120A  118A  	fcall	_I2C_Master_Stop
  1890     03B9                     l1920:
  1891                           
  1892                           ;C:/Users/Bryan Ortiz/Desktop/Digital2/LAB4/LAB4D2.X/LAB4.c: 195:         monH= (month &
      +                           0xF0)>>4;
  1893     03B9  1283               	bcf	3,5	;RP0=0, select bank0
  1894     03BA  1303               	bcf	3,6	;RP1=0, select bank0
  1895     03BB  0847               	movf	_month,w
  1896     03BC  00AD               	movwf	??_main
  1897     03BD  3004               	movlw	4
  1898     03BE                     u1275:
  1899     03BE  1003               	clrc
  1900     03BF  0CAD               	rrf	??_main,f
  1901     03C0  3EFF               	addlw	-1
  1902     03C1  1D03               	skipz
  1903     03C2  2BBE               	goto	u1275
  1904     03C3  082D               	movf	??_main,w
  1905     03C4  390F               	andlw	15
  1906     03C5  00C6               	movwf	_monH
  1907     03C6                     l1922:
  1908                           
  1909                           ;C:/Users/Bryan Ortiz/Desktop/Digital2/LAB4/LAB4D2.X/LAB4.c: 196:         monL= month & 
      +                          0x0F;
  1910     03C6  0847               	movf	_month,w
  1911     03C7  390F               	andlw	15
  1912     03C8  00C5               	movwf	_monL
  1913     03C9                     l1924:
  1914                           
  1915                           ;C:/Users/Bryan Ortiz/Desktop/Digital2/LAB4/LAB4D2.X/LAB4.c: 198:         I2C_Master_Sta
      +                          rt();
  1916     03C9  120A  158A  279B  120A  118A  	fcall	_I2C_Master_Start
  1917     03CE                     l1926:
  1918                           
  1919                           ;C:/Users/Bryan Ortiz/Desktop/Digital2/LAB4/LAB4D2.X/LAB4.c: 199:         I2C_Master_Wri
      +                          te(0xD0);
  1920     03CE  30D0               	movlw	208
  1921     03CF  00F2               	movwf	I2C_Master_Write@d
  1922     03D0  3000               	movlw	0
  1923     03D1  00F3               	movwf	I2C_Master_Write@d+1
  1924     03D2  120A  158A  27AD  120A  118A  	fcall	_I2C_Master_Write
  1925     03D7                     l1928:
  1926                           
  1927                           ;C:/Users/Bryan Ortiz/Desktop/Digital2/LAB4/LAB4D2.X/LAB4.c: 200:         I2C_Master_Wri
      +                          te(0x06);
  1928     03D7  3006               	movlw	6
  1929     03D8  00F2               	movwf	I2C_Master_Write@d
  1930     03D9  3000               	movlw	0
  1931     03DA  00F3               	movwf	I2C_Master_Write@d+1
  1932     03DB  120A  158A  27AD  120A  118A  	fcall	_I2C_Master_Write
  1933     03E0                     l1930:
  1934                           
  1935                           ;C:/Users/Bryan Ortiz/Desktop/Digital2/LAB4/LAB4D2.X/LAB4.c: 201:         I2C_Master_Rep
      +                          eatedStart();
  1936     03E0  120A  158A  2792  120A  118A  	fcall	_I2C_Master_RepeatedStart
  1937     03E5                     l1932:
  1938                           
  1939                           ;C:/Users/Bryan Ortiz/Desktop/Digital2/LAB4/LAB4D2.X/LAB4.c: 202:         I2C_Master_Wri
      +                          te(0xD1);
  1940     03E5  30D1               	movlw	209
  1941     03E6  00F2               	movwf	I2C_Master_Write@d
  1942     03E7  3000               	movlw	0
  1943     03E8  00F3               	movwf	I2C_Master_Write@d+1
  1944     03E9  120A  158A  27AD  120A  118A  	fcall	_I2C_Master_Write
  1945     03EE                     l1934:
  1946                           
  1947                           ;C:/Users/Bryan Ortiz/Desktop/Digital2/LAB4/LAB4D2.X/LAB4.c: 203:         year = I2C_Mas
      +                          ter_Read(0);
  1948     03EE  3000               	movlw	0
  1949     03EF  00F2               	movwf	I2C_Master_Read@a
  1950     03F0  00F3               	movwf	I2C_Master_Read@a+1
  1951     03F1  120A  118A  2774  120A  118A  	fcall	_I2C_Master_Read
  1952     03F6  0872               	movf	?_I2C_Master_Read,w
  1953     03F7  1283               	bcf	3,5	;RP0=0, select bank0
  1954     03F8  1303               	bcf	3,6	;RP1=0, select bank0
  1955     03F9  00C4               	movwf	_year
  1956     03FA                     l1936:
  1957                           
  1958                           ;C:/Users/Bryan Ortiz/Desktop/Digital2/LAB4/LAB4D2.X/LAB4.c: 204:         I2C_Master_Sto
      +                          p();
  1959     03FA  120A  158A  27A4  120A  118A  	fcall	_I2C_Master_Stop
  1960     03FF                     l1938:
  1961                           
  1962                           ;C:/Users/Bryan Ortiz/Desktop/Digital2/LAB4/LAB4D2.X/LAB4.c: 205:         yrH= (year & 0
      +                          xF0)>>4;
  1963     03FF  1283               	bcf	3,5	;RP0=0, select bank0
  1964     0400  1303               	bcf	3,6	;RP1=0, select bank0
  1965     0401  0844               	movf	_year,w
  1966     0402  00AD               	movwf	??_main
  1967     0403  3004               	movlw	4
  1968     0404                     u1285:
  1969     0404  1003               	clrc
  1970     0405  0CAD               	rrf	??_main,f
  1971     0406  3EFF               	addlw	-1
  1972     0407  1D03               	skipz
  1973     0408  2C04               	goto	u1285
  1974     0409  082D               	movf	??_main,w
  1975     040A  390F               	andlw	15
  1976     040B  00C3               	movwf	_yrH
  1977     040C                     l1940:
  1978                           
  1979                           ;C:/Users/Bryan Ortiz/Desktop/Digital2/LAB4/LAB4D2.X/LAB4.c: 206:         yrL= year & 0x
      +                          0F;
  1980     040C  0844               	movf	_year,w
  1981     040D  390F               	andlw	15
  1982     040E  00C2               	movwf	_yrL
  1983     040F                     l1942:
  1984                           
  1985                           ;C:/Users/Bryan Ortiz/Desktop/Digital2/LAB4/LAB4D2.X/LAB4.c: 210:         char ADC[3];;C
      +                          :/Users/Bryan Ortiz/Desktop/Digital2/LAB4/LAB4D2.X/LAB4.c: 211:         ADC[0]=adc_val/1
      +                          00+48;
  1986     040F  3064               	movlw	100
  1987     0410  00F2               	movwf	___awdiv@divisor
  1988     0411  3000               	movlw	0
  1989     0412  00F3               	movwf	___awdiv@divisor+1
  1990     0413  0854               	movf	_adc_val,w
  1991     0414  00AD               	movwf	??_main
  1992     0415  01AE               	clrf	??_main+1
  1993     0416  082D               	movf	??_main,w
  1994     0417  00F4               	movwf	___awdiv@dividend
  1995     0418  082E               	movf	??_main+1,w
  1996     0419  00F5               	movwf	___awdiv@dividend+1
  1997     041A  120A  118A  25BC  120A  118A  	fcall	___awdiv
  1998     041F  0872               	movf	?___awdiv,w
  1999     0420  3E30               	addlw	48
  2000     0421  1283               	bcf	3,5	;RP0=0, select bank0
  2001     0422  1303               	bcf	3,6	;RP1=0, select bank0
  2002     0423  00BC               	movwf	main@ADC
  2003     0424                     l1944:
  2004                           
  2005                           ;C:/Users/Bryan Ortiz/Desktop/Digital2/LAB4/LAB4D2.X/LAB4.c: 212:         ADC[1]=(adc_va
      +                          l/10)%10+48;
  2006     0424  300A               	movlw	10
  2007     0425  00A0               	movwf	___awmod@divisor
  2008     0426  3000               	movlw	0
  2009     0427  00A1               	movwf	___awmod@divisor+1
  2010     0428  300A               	movlw	10
  2011     0429  00F2               	movwf	___awdiv@divisor
  2012     042A  3000               	movlw	0
  2013     042B  00F3               	movwf	___awdiv@divisor+1
  2014     042C  0854               	movf	_adc_val,w
  2015     042D  00AD               	movwf	??_main
  2016     042E  01AE               	clrf	??_main+1
  2017     042F  082D               	movf	??_main,w
  2018     0430  00F4               	movwf	___awdiv@dividend
  2019     0431  082E               	movf	??_main+1,w
  2020     0432  00F5               	movwf	___awdiv@dividend+1
  2021     0433  120A  118A  25BC  120A  118A  	fcall	___awdiv
  2022     0438  0873               	movf	?___awdiv+1,w
  2023     0439  1283               	bcf	3,5	;RP0=0, select bank0
  2024     043A  1303               	bcf	3,6	;RP1=0, select bank0
  2025     043B  00A3               	movwf	___awmod@dividend+1
  2026     043C  0872               	movf	?___awdiv,w
  2027     043D  00A2               	movwf	___awmod@dividend
  2028     043E  120A  118A  2623  120A  118A  	fcall	___awmod
  2029     0443  1283               	bcf	3,5	;RP0=0, select bank0
  2030     0444  1303               	bcf	3,6	;RP1=0, select bank0
  2031     0445  0820               	movf	?___awmod,w
  2032     0446  3E30               	addlw	48
  2033     0447  00BD               	movwf	main@ADC+1
  2034     0448                     l1946:
  2035                           
  2036                           ;C:/Users/Bryan Ortiz/Desktop/Digital2/LAB4/LAB4D2.X/LAB4.c: 213:         ADC[2]=adc_val
      +                          %10+48;
  2037     0448  300A               	movlw	10
  2038     0449  00A0               	movwf	___awmod@divisor
  2039     044A  3000               	movlw	0
  2040     044B  00A1               	movwf	___awmod@divisor+1
  2041     044C  0854               	movf	_adc_val,w
  2042     044D  00AD               	movwf	??_main
  2043     044E  01AE               	clrf	??_main+1
  2044     044F  082D               	movf	??_main,w
  2045     0450  00A2               	movwf	___awmod@dividend
  2046     0451  082E               	movf	??_main+1,w
  2047     0452  00A3               	movwf	___awmod@dividend+1
  2048     0453  120A  118A  2623  120A  118A  	fcall	___awmod
  2049     0458  1283               	bcf	3,5	;RP0=0, select bank0
  2050     0459  1303               	bcf	3,6	;RP1=0, select bank0
  2051     045A  0820               	movf	?___awmod,w
  2052     045B  3E30               	addlw	48
  2053     045C  00BE               	movwf	main@ADC+2
  2054     045D                     l1948:
  2055                           
  2056                           ;C:/Users/Bryan Ortiz/Desktop/Digital2/LAB4/LAB4D2.X/LAB4.c: 215:         Lcd_Set_Cursor
      +                          (1,1);
  2057     045D  01F6               	clrf	Lcd_Set_Cursor@b
  2058     045E  0AF6               	incf	Lcd_Set_Cursor@b,f
  2059     045F  3001               	movlw	1
  2060     0460  120A  118A  27C7  120A  118A  	fcall	_Lcd_Set_Cursor
  2061     0465                     l1950:
  2062                           
  2063                           ;C:/Users/Bryan Ortiz/Desktop/Digital2/LAB4/LAB4D2.X/LAB4.c: 216:         Lcd_Write_Stri
      +                          ng("S1:");
  2064     0465  3001               	movlw	(low ((STR_1-__stringbase)| (0+32768)))& (0+255)
  2065     0466  120A  118A  27A2  120A  118A  	fcall	_Lcd_Write_String
  2066     046B                     l1952:
  2067                           
  2068                           ;C:/Users/Bryan Ortiz/Desktop/Digital2/LAB4/LAB4D2.X/LAB4.c: 217:         Lcd_Set_Cursor
      +                          (2,1);
  2069     046B  01F6               	clrf	Lcd_Set_Cursor@b
  2070     046C  0AF6               	incf	Lcd_Set_Cursor@b,f
  2071     046D  3002               	movlw	2
  2072     046E  120A  118A  27C7  120A  118A  	fcall	_Lcd_Set_Cursor
  2073     0473                     l1954:
  2074                           
  2075                           ;C:/Users/Bryan Ortiz/Desktop/Digital2/LAB4/LAB4D2.X/LAB4.c: 218:         Lcd_Write_Char
      +                          (ADC[0]);
  2076     0473  1283               	bcf	3,5	;RP0=0, select bank0
  2077     0474  1303               	bcf	3,6	;RP1=0, select bank0
  2078     0475  083C               	movf	main@ADC,w
  2079     0476  120A  118A  27E7  120A  118A  	fcall	_Lcd_Write_Char
  2080     047B                     l1956:
  2081                           
  2082                           ;C:/Users/Bryan Ortiz/Desktop/Digital2/LAB4/LAB4D2.X/LAB4.c: 219:         Lcd_Write_Char
      +                          (ADC[1]);
  2083     047B  1283               	bcf	3,5	;RP0=0, select bank0
  2084     047C  1303               	bcf	3,6	;RP1=0, select bank0
  2085     047D  083D               	movf	main@ADC+1,w
  2086     047E  120A  118A  27E7  120A  118A  	fcall	_Lcd_Write_Char
  2087     0483                     l1958:
  2088                           
  2089                           ;C:/Users/Bryan Ortiz/Desktop/Digital2/LAB4/LAB4D2.X/LAB4.c: 220:         Lcd_Write_Char
      +                          (ADC[2]);
  2090     0483  1283               	bcf	3,5	;RP0=0, select bank0
  2091     0484  1303               	bcf	3,6	;RP1=0, select bank0
  2092     0485  083E               	movf	main@ADC+2,w
  2093     0486  120A  118A  27E7  120A  118A  	fcall	_Lcd_Write_Char
  2094     048B                     l1960:
  2095                           
  2096                           ;C:/Users/Bryan Ortiz/Desktop/Digital2/LAB4/LAB4D2.X/LAB4.c: 223:         char segs[2],m
      +                          ins[2],hrs[2],days[2],months[2],years[2];;C:/Users/Bryan Ortiz/Desktop/Digital2/LAB4/LAB
      +                          4D2.X/LAB4.c: 224:         segs[0]= secL + 48;
  2097     048B  1283               	bcf	3,5	;RP0=0, select bank0
  2098     048C  1303               	bcf	3,6	;RP1=0, select bank0
  2099     048D  0851               	movf	_secL,w
  2100     048E  3E30               	addlw	48
  2101     048F  00B0               	movwf	main@segs
  2102     0490                     l1962:
  2103                           
  2104                           ;C:/Users/Bryan Ortiz/Desktop/Digital2/LAB4/LAB4D2.X/LAB4.c: 225:         segs[1]= secH 
      +                          + '0';
  2105     0490  0852               	movf	_secH,w
  2106     0491  3E30               	addlw	48
  2107     0492  00B1               	movwf	main@segs+1
  2108     0493                     l1964:
  2109                           
  2110                           ;C:/Users/Bryan Ortiz/Desktop/Digital2/LAB4/LAB4D2.X/LAB4.c: 226:         mins[0]= minL 
      +                          + 48;
  2111     0493  084E               	movf	_minL,w
  2112     0494  3E30               	addlw	48
  2113     0495  00B2               	movwf	main@mins
  2114     0496                     l1966:
  2115                           
  2116                           ;C:/Users/Bryan Ortiz/Desktop/Digital2/LAB4/LAB4D2.X/LAB4.c: 227:         mins[1]= minH 
      +                          + '0';
  2117     0496  084F               	movf	_minH,w
  2118     0497  3E30               	addlw	48
  2119     0498  00B3               	movwf	main@mins+1
  2120     0499                     l1968:
  2121                           
  2122                           ;C:/Users/Bryan Ortiz/Desktop/Digital2/LAB4/LAB4D2.X/LAB4.c: 228:         hrs[0]= hrL + 
      +                          48;
  2123     0499  084B               	movf	_hrL,w
  2124     049A  3E30               	addlw	48
  2125     049B  00B4               	movwf	main@hrs
  2126     049C                     l1970:
  2127                           
  2128                           ;C:/Users/Bryan Ortiz/Desktop/Digital2/LAB4/LAB4D2.X/LAB4.c: 229:         hrs[1]= hrH + 
      +                          '0';
  2129     049C  084C               	movf	_hrH,w
  2130     049D  3E30               	addlw	48
  2131     049E  00B5               	movwf	main@hrs+1
  2132     049F                     l1972:
  2133                           
  2134                           ;C:/Users/Bryan Ortiz/Desktop/Digital2/LAB4/LAB4D2.X/LAB4.c: 230:         days[0]= dL + 
      +                          48;
  2135     049F  0848               	movf	_dL,w
  2136     04A0  3E30               	addlw	48
  2137     04A1  00B6               	movwf	main@days
  2138     04A2                     l1974:
  2139                           
  2140                           ;C:/Users/Bryan Ortiz/Desktop/Digital2/LAB4/LAB4D2.X/LAB4.c: 231:         days[1]= dH + 
      +                          '0';
  2141     04A2  0849               	movf	_dH,w
  2142     04A3  3E30               	addlw	48
  2143     04A4  00B7               	movwf	main@days+1
  2144     04A5                     l1976:
  2145                           
  2146                           ;C:/Users/Bryan Ortiz/Desktop/Digital2/LAB4/LAB4D2.X/LAB4.c: 232:         months[0]= mon
      +                          L + 48;
  2147     04A5  0845               	movf	_monL,w
  2148     04A6  3E30               	addlw	48
  2149     04A7  00B8               	movwf	main@months
  2150     04A8                     l1978:
  2151                           
  2152                           ;C:/Users/Bryan Ortiz/Desktop/Digital2/LAB4/LAB4D2.X/LAB4.c: 233:         months[1]= mon
      +                          H + '0';
  2153     04A8  0846               	movf	_monH,w
  2154     04A9  3E30               	addlw	48
  2155     04AA  00B9               	movwf	main@months+1
  2156     04AB                     l1980:
  2157                           
  2158                           ;C:/Users/Bryan Ortiz/Desktop/Digital2/LAB4/LAB4D2.X/LAB4.c: 234:         years[0]= yrL 
      +                          + 48;
  2159     04AB  0842               	movf	_yrL,w
  2160     04AC  3E30               	addlw	48
  2161     04AD  00BA               	movwf	main@years
  2162     04AE                     l1982:
  2163                           
  2164                           ;C:/Users/Bryan Ortiz/Desktop/Digital2/LAB4/LAB4D2.X/LAB4.c: 235:         years[1]= yrH 
      +                          + '0';
  2165     04AE  0843               	movf	_yrH,w
  2166     04AF  3E30               	addlw	48
  2167     04B0  00BB               	movwf	main@years+1
  2168     04B1                     l1984:
  2169                           
  2170                           ;C:/Users/Bryan Ortiz/Desktop/Digital2/LAB4/LAB4D2.X/LAB4.c: 236:         Lcd_Set_Cursor
      +                          (1,6);
  2171     04B1  3006               	movlw	6
  2172     04B2  00F6               	movwf	Lcd_Set_Cursor@b
  2173     04B3  3001               	movlw	1
  2174     04B4  120A  118A  27C7  120A  118A  	fcall	_Lcd_Set_Cursor
  2175     04B9                     l1986:
  2176                           
  2177                           ;C:/Users/Bryan Ortiz/Desktop/Digital2/LAB4/LAB4D2.X/LAB4.c: 239:         Lcd_Write_Char
      +                          (days[1]);
  2178     04B9  1283               	bcf	3,5	;RP0=0, select bank0
  2179     04BA  1303               	bcf	3,6	;RP1=0, select bank0
  2180     04BB  0837               	movf	main@days+1,w
  2181     04BC  120A  118A  27E7  120A  118A  	fcall	_Lcd_Write_Char
  2182     04C1                     l1988:
  2183                           
  2184                           ;C:/Users/Bryan Ortiz/Desktop/Digital2/LAB4/LAB4D2.X/LAB4.c: 240:         Lcd_Write_Char
      +                          (days[0]);
  2185     04C1  1283               	bcf	3,5	;RP0=0, select bank0
  2186     04C2  1303               	bcf	3,6	;RP1=0, select bank0
  2187     04C3  0836               	movf	main@days,w
  2188     04C4  120A  118A  27E7  120A  118A  	fcall	_Lcd_Write_Char
  2189     04C9                     l1990:
  2190                           
  2191                           ;C:/Users/Bryan Ortiz/Desktop/Digital2/LAB4/LAB4D2.X/LAB4.c: 241:         Lcd_Write_Char
      +                          ('/');
  2192     04C9  302F               	movlw	47
  2193     04CA  120A  118A  27E7  120A  118A  	fcall	_Lcd_Write_Char
  2194     04CF                     l1992:
  2195                           
  2196                           ;C:/Users/Bryan Ortiz/Desktop/Digital2/LAB4/LAB4D2.X/LAB4.c: 242:         Lcd_Write_Char
      +                          (months[1]);
  2197     04CF  1283               	bcf	3,5	;RP0=0, select bank0
  2198     04D0  1303               	bcf	3,6	;RP1=0, select bank0
  2199     04D1  0839               	movf	main@months+1,w
  2200     04D2  120A  118A  27E7  120A  118A  	fcall	_Lcd_Write_Char
  2201     04D7                     l1994:
  2202                           
  2203                           ;C:/Users/Bryan Ortiz/Desktop/Digital2/LAB4/LAB4D2.X/LAB4.c: 243:         Lcd_Write_Char
      +                          (months[0]);
  2204     04D7  1283               	bcf	3,5	;RP0=0, select bank0
  2205     04D8  1303               	bcf	3,6	;RP1=0, select bank0
  2206     04D9  0838               	movf	main@months,w
  2207     04DA  120A  118A  27E7  120A  118A  	fcall	_Lcd_Write_Char
  2208     04DF                     l1996:
  2209                           
  2210                           ;C:/Users/Bryan Ortiz/Desktop/Digital2/LAB4/LAB4D2.X/LAB4.c: 244:         Lcd_Write_Char
      +                          ('/');
  2211     04DF  302F               	movlw	47
  2212     04E0  120A  118A  27E7  120A  118A  	fcall	_Lcd_Write_Char
  2213     04E5                     l1998:
  2214                           
  2215                           ;C:/Users/Bryan Ortiz/Desktop/Digital2/LAB4/LAB4D2.X/LAB4.c: 245:         Lcd_Write_Char
      +                          ('2');
  2216     04E5  3032               	movlw	50
  2217     04E6  120A  118A  27E7  120A  118A  	fcall	_Lcd_Write_Char
  2218     04EB                     l2000:
  2219                           
  2220                           ;C:/Users/Bryan Ortiz/Desktop/Digital2/LAB4/LAB4D2.X/LAB4.c: 246:         Lcd_Write_Char
      +                          ('0');
  2221     04EB  3030               	movlw	48
  2222     04EC  120A  118A  27E7  120A  118A  	fcall	_Lcd_Write_Char
  2223     04F1                     l2002:
  2224                           
  2225                           ;C:/Users/Bryan Ortiz/Desktop/Digital2/LAB4/LAB4D2.X/LAB4.c: 247:         Lcd_Write_Char
      +                          (years[1]);
  2226     04F1  1283               	bcf	3,5	;RP0=0, select bank0
  2227     04F2  1303               	bcf	3,6	;RP1=0, select bank0
  2228     04F3  083B               	movf	main@years+1,w
  2229     04F4  120A  118A  27E7  120A  118A  	fcall	_Lcd_Write_Char
  2230     04F9                     l2004:
  2231                           
  2232                           ;C:/Users/Bryan Ortiz/Desktop/Digital2/LAB4/LAB4D2.X/LAB4.c: 248:         Lcd_Write_Char
      +                          (years[0]);
  2233     04F9  1283               	bcf	3,5	;RP0=0, select bank0
  2234     04FA  1303               	bcf	3,6	;RP1=0, select bank0
  2235     04FB  083A               	movf	main@years,w
  2236     04FC  120A  118A  27E7  120A  118A  	fcall	_Lcd_Write_Char
  2237     0501                     l2006:
  2238                           
  2239                           ;C:/Users/Bryan Ortiz/Desktop/Digital2/LAB4/LAB4D2.X/LAB4.c: 249:         Lcd_Set_Cursor
      +                          (2,6);
  2240     0501  3006               	movlw	6
  2241     0502  00F6               	movwf	Lcd_Set_Cursor@b
  2242     0503  3002               	movlw	2
  2243     0504  120A  118A  27C7  120A  118A  	fcall	_Lcd_Set_Cursor
  2244     0509                     l2008:
  2245                           
  2246                           ;C:/Users/Bryan Ortiz/Desktop/Digital2/LAB4/LAB4D2.X/LAB4.c: 250:         Lcd_Write_Char
      +                          (hrs[1]);
  2247     0509  1283               	bcf	3,5	;RP0=0, select bank0
  2248     050A  1303               	bcf	3,6	;RP1=0, select bank0
  2249     050B  0835               	movf	main@hrs+1,w
  2250     050C  120A  118A  27E7  120A  118A  	fcall	_Lcd_Write_Char
  2251     0511                     l2010:
  2252                           
  2253                           ;C:/Users/Bryan Ortiz/Desktop/Digital2/LAB4/LAB4D2.X/LAB4.c: 251:         Lcd_Write_Char
      +                          (hrs[0]);
  2254     0511  1283               	bcf	3,5	;RP0=0, select bank0
  2255     0512  1303               	bcf	3,6	;RP1=0, select bank0
  2256     0513  0834               	movf	main@hrs,w
  2257     0514  120A  118A  27E7  120A  118A  	fcall	_Lcd_Write_Char
  2258     0519                     l2012:
  2259                           
  2260                           ;C:/Users/Bryan Ortiz/Desktop/Digital2/LAB4/LAB4D2.X/LAB4.c: 252:         Lcd_Write_Char
      +                          (':');
  2261     0519  303A               	movlw	58
  2262     051A  120A  118A  27E7  120A  118A  	fcall	_Lcd_Write_Char
  2263     051F                     l2014:
  2264                           
  2265                           ;C:/Users/Bryan Ortiz/Desktop/Digital2/LAB4/LAB4D2.X/LAB4.c: 253:         Lcd_Write_Char
      +                          (mins[1]);
  2266     051F  1283               	bcf	3,5	;RP0=0, select bank0
  2267     0520  1303               	bcf	3,6	;RP1=0, select bank0
  2268     0521  0833               	movf	main@mins+1,w
  2269     0522  120A  118A  27E7  120A  118A  	fcall	_Lcd_Write_Char
  2270     0527                     l2016:
  2271                           
  2272                           ;C:/Users/Bryan Ortiz/Desktop/Digital2/LAB4/LAB4D2.X/LAB4.c: 254:         Lcd_Write_Char
      +                          (mins[0]);
  2273     0527  1283               	bcf	3,5	;RP0=0, select bank0
  2274     0528  1303               	bcf	3,6	;RP1=0, select bank0
  2275     0529  0832               	movf	main@mins,w
  2276     052A  120A  118A  27E7  120A  118A  	fcall	_Lcd_Write_Char
  2277     052F                     l2018:
  2278                           
  2279                           ;C:/Users/Bryan Ortiz/Desktop/Digital2/LAB4/LAB4D2.X/LAB4.c: 255:         Lcd_Write_Char
      +                          (':');
  2280     052F  303A               	movlw	58
  2281     0530  120A  118A  27E7  120A  118A  	fcall	_Lcd_Write_Char
  2282     0535                     l2020:
  2283                           
  2284                           ;C:/Users/Bryan Ortiz/Desktop/Digital2/LAB4/LAB4D2.X/LAB4.c: 256:         Lcd_Write_Char
      +                          (segs[1]);
  2285     0535  1283               	bcf	3,5	;RP0=0, select bank0
  2286     0536  1303               	bcf	3,6	;RP1=0, select bank0
  2287     0537  0831               	movf	main@segs+1,w
  2288     0538  120A  118A  27E7  120A  118A  	fcall	_Lcd_Write_Char
  2289     053D                     l2022:
  2290                           
  2291                           ;C:/Users/Bryan Ortiz/Desktop/Digital2/LAB4/LAB4D2.X/LAB4.c: 257:         Lcd_Write_Char
      +                          (segs[0]);
  2292     053D  1283               	bcf	3,5	;RP0=0, select bank0
  2293     053E  1303               	bcf	3,6	;RP1=0, select bank0
  2294     053F  0830               	movf	main@segs,w
  2295     0540  120A  118A  27E7  120A  118A  	fcall	_Lcd_Write_Char
  2296     0545                     l2024:
  2297                           
  2298                           ;C:/Users/Bryan Ortiz/Desktop/Digital2/LAB4/LAB4D2.X/LAB4.c: 259:         _delay((unsign
      +                          ed long)((55)*(8000000/4000.0)));
  2299     0545  308F               	movlw	143
  2300     0546  1283               	bcf	3,5	;RP0=0, select bank0
  2301     0547  1303               	bcf	3,6	;RP1=0, select bank0
  2302     0548  00AE               	movwf	??_main+1
  2303     0549  30D9               	movlw	217
  2304     054A  00AD               	movwf	??_main
  2305     054B                     u1327:
  2306     054B  0BAD               	decfsz	??_main,f
  2307     054C  2D4B               	goto	u1327
  2308     054D  0BAE               	decfsz	??_main+1,f
  2309     054E  2D4B               	goto	u1327
  2310     054F  2D50               	nop2
  2311     0550  2826               	goto	l1704
  2312     0551  120A  118A  280C   	ljmp	start
  2313     0554                     __end_of_main:
  2314                           
  2315                           	psect	text1
  2316     073E                     __ptext1:	
  2317 ;; *************** function _writeTime *****************
  2318 ;; Defined at:
  2319 ;;		line 303 in file "C:/Users/Bryan Ortiz/Desktop/Digital2/LAB4/LAB4D2.X/LAB4.c"
  2320 ;; Parameters:    Size  Location     Type
  2321 ;;  dir             1    wreg     unsigned char 
  2322 ;;  d               1    4[COMMON] unsigned char 
  2323 ;; Auto vars:     Size  Location     Type
  2324 ;;  dir             1    7[COMMON] unsigned char 
  2325 ;; Return value:  Size  Location     Type
  2326 ;;                  1    wreg      void 
  2327 ;; Registers used:
  2328 ;;		wreg, status,2, status,0, pclath, cstack
  2329 ;; Tracked objects:
  2330 ;;		On entry : 0/0
  2331 ;;		On exit  : 0/0
  2332 ;;		Unchanged: 0/0
  2333 ;; Data sizes:     COMMON   BANK0   BANK1   BANK3   BANK2
  2334 ;;      Params:         1       0       0       0       0
  2335 ;;      Locals:         1       0       0       0       0
  2336 ;;      Temps:          2       0       0       0       0
  2337 ;;      Totals:         4       0       0       0       0
  2338 ;;Total ram usage:        4 bytes
  2339 ;; Hardware stack levels used: 1
  2340 ;; Hardware stack levels required when called: 3
  2341 ;; This function calls:
  2342 ;;		_I2C_Master_Start
  2343 ;;		_I2C_Master_Stop
  2344 ;;		_I2C_Master_Write
  2345 ;; This function is called by:
  2346 ;;		_main
  2347 ;; This function uses a non-reentrant model
  2348 ;;
  2349                           
  2350     073E                     _writeTime:	
  2351                           ;psect for function _writeTime
  2352                           
  2353                           
  2354                           ;incstack = 0
  2355                           ; Regs used in _writeTime: [wreg+status,2+status,0+pclath+cstack]
  2356                           ;writeTime@dir stored from wreg
  2357     073E  00F7               	movwf	writeTime@dir
  2358     073F                     l1590:
  2359                           
  2360                           ;C:/Users/Bryan Ortiz/Desktop/Digital2/LAB4/LAB4D2.X/LAB4.c: 304:     I2C_Master_Start()
      +                          ;
  2361     073F  120A  158A  279B  120A  118A  	fcall	_I2C_Master_Start
  2362                           
  2363                           ;C:/Users/Bryan Ortiz/Desktop/Digital2/LAB4/LAB4D2.X/LAB4.c: 305:     I2C_Master_Write(0
      +                          xD0);
  2364     0744  30D0               	movlw	208
  2365     0745  00F2               	movwf	I2C_Master_Write@d
  2366     0746  3000               	movlw	0
  2367     0747  00F3               	movwf	I2C_Master_Write@d+1
  2368     0748  120A  158A  27AD  120A  118A  	fcall	_I2C_Master_Write
  2369                           
  2370                           ;C:/Users/Bryan Ortiz/Desktop/Digital2/LAB4/LAB4D2.X/LAB4.c: 306:     I2C_Master_Write(d
      +                          ir);
  2371     074D  0877               	movf	writeTime@dir,w
  2372     074E  00F5               	movwf	??_writeTime
  2373     074F  01F6               	clrf	??_writeTime+1
  2374     0750  0875               	movf	??_writeTime,w
  2375     0751  00F2               	movwf	I2C_Master_Write@d
  2376     0752  0876               	movf	??_writeTime+1,w
  2377     0753  00F3               	movwf	I2C_Master_Write@d+1
  2378     0754  120A  158A  27AD  120A  118A  	fcall	_I2C_Master_Write
  2379                           
  2380                           ;C:/Users/Bryan Ortiz/Desktop/Digital2/LAB4/LAB4D2.X/LAB4.c: 307:     I2C_Master_Write(d
      +                          );
  2381     0759  0874               	movf	writeTime@d,w
  2382     075A  00F5               	movwf	??_writeTime
  2383     075B  01F6               	clrf	??_writeTime+1
  2384     075C  0875               	movf	??_writeTime,w
  2385     075D  00F2               	movwf	I2C_Master_Write@d
  2386     075E  0876               	movf	??_writeTime+1,w
  2387     075F  00F3               	movwf	I2C_Master_Write@d+1
  2388     0760  120A  158A  27AD  120A  118A  	fcall	_I2C_Master_Write
  2389                           
  2390                           ;C:/Users/Bryan Ortiz/Desktop/Digital2/LAB4/LAB4D2.X/LAB4.c: 308:     I2C_Master_Stop();
  2391     0765  120A  158A  27A4  120A  118A  	fcall	_I2C_Master_Stop
  2392     076A                     l1592:
  2393                           
  2394                           ;C:/Users/Bryan Ortiz/Desktop/Digital2/LAB4/LAB4D2.X/LAB4.c: 309:     _delay((unsigned l
      +                          ong)((10)*(8000000/4000.0)));
  2395     076A  301A               	movlw	26
  2396     076B  00F6               	movwf	??_writeTime+1
  2397     076C  30F8               	movlw	248
  2398     076D  00F5               	movwf	??_writeTime
  2399     076E                     u1337:
  2400     076E  0BF5               	decfsz	??_writeTime,f
  2401     076F  2F6E               	goto	u1337
  2402     0770  0BF6               	decfsz	??_writeTime+1,f
  2403     0771  2F6E               	goto	u1337
  2404     0772  0000               	nop
  2405     0773                     l199:
  2406     0773  0008               	return
  2407     0774                     __end_of_writeTime:
  2408                           
  2409                           	psect	text2
  2410     0FAD                     __ptext2:	
  2411 ;; *************** function _I2C_Master_Write *****************
  2412 ;; Defined at:
  2413 ;;		line 65 in file "C:/Users/Bryan Ortiz/Desktop/Digital2/LAB4/LAB4D2.X/I2C.c"
  2414 ;; Parameters:    Size  Location     Type
  2415 ;;  d               2    2[COMMON] unsigned int 
  2416 ;; Auto vars:     Size  Location     Type
  2417 ;;		None
  2418 ;; Return value:  Size  Location     Type
  2419 ;;                  1    wreg      void 
  2420 ;; Registers used:
  2421 ;;		wreg, status,2, status,0, pclath, cstack
  2422 ;; Tracked objects:
  2423 ;;		On entry : 0/0
  2424 ;;		On exit  : 0/0
  2425 ;;		Unchanged: 0/0
  2426 ;; Data sizes:     COMMON   BANK0   BANK1   BANK3   BANK2
  2427 ;;      Params:         2       0       0       0       0
  2428 ;;      Locals:         0       0       0       0       0
  2429 ;;      Temps:          0       0       0       0       0
  2430 ;;      Totals:         2       0       0       0       0
  2431 ;;Total ram usage:        2 bytes
  2432 ;; Hardware stack levels used: 1
  2433 ;; Hardware stack levels required when called: 2
  2434 ;; This function calls:
  2435 ;;		_I2C_Master_Wait
  2436 ;; This function is called by:
  2437 ;;		_main
  2438 ;;		_writeTime
  2439 ;; This function uses a non-reentrant model
  2440 ;;
  2441                           
  2442     0FAD                     _I2C_Master_Write:	
  2443                           ;psect for function _I2C_Master_Write
  2444                           
  2445     0FAD                     l1498:	
  2446                           ;incstack = 0
  2447                           ; Regs used in _I2C_Master_Write: [wreg+status,2+status,0+pclath+cstack]
  2448                           
  2449                           
  2450                           ;C:/Users/Bryan Ortiz/Desktop/Digital2/LAB4/LAB4D2.X/I2C.c: 65: void I2C_Master_Write(un
      +                          signed d);C:/Users/Bryan Ortiz/Desktop/Digital2/LAB4/LAB4D2.X/I2C.c: 66: {;C:/Users/Brya
      +                          n Ortiz/Desktop/Digital2/LAB4/LAB4D2.X/I2C.c: 67:     I2C_Master_Wait();
  2451     0FAD  120A  158A  27B7  120A  158A  	fcall	_I2C_Master_Wait
  2452     0FB2                     l1500:
  2453                           
  2454                           ;C:/Users/Bryan Ortiz/Desktop/Digital2/LAB4/LAB4D2.X/I2C.c: 68:     SSPBUF = d;
  2455     0FB2  0872               	movf	I2C_Master_Write@d,w
  2456     0FB3  1283               	bcf	3,5	;RP0=0, select bank0
  2457     0FB4  1303               	bcf	3,6	;RP1=0, select bank0
  2458     0FB5  0093               	movwf	19	;volatile
  2459     0FB6                     l47:
  2460     0FB6  0008               	return
  2461     0FB7                     __end_of_I2C_Master_Write:
  2462                           
  2463                           	psect	text3
  2464     0FA4                     __ptext3:	
  2465 ;; *************** function _I2C_Master_Stop *****************
  2466 ;; Defined at:
  2467 ;;		line 55 in file "C:/Users/Bryan Ortiz/Desktop/Digital2/LAB4/LAB4D2.X/I2C.c"
  2468 ;; Parameters:    Size  Location     Type
  2469 ;;		None
  2470 ;; Auto vars:     Size  Location     Type
  2471 ;;		None
  2472 ;; Return value:  Size  Location     Type
  2473 ;;                  1    wreg      void 
  2474 ;; Registers used:
  2475 ;;		wreg, status,2, status,0, pclath, cstack
  2476 ;; Tracked objects:
  2477 ;;		On entry : 0/0
  2478 ;;		On exit  : 0/0
  2479 ;;		Unchanged: 0/0
  2480 ;; Data sizes:     COMMON   BANK0   BANK1   BANK3   BANK2
  2481 ;;      Params:         0       0       0       0       0
  2482 ;;      Locals:         0       0       0       0       0
  2483 ;;      Temps:          0       0       0       0       0
  2484 ;;      Totals:         0       0       0       0       0
  2485 ;;Total ram usage:        0 bytes
  2486 ;; Hardware stack levels used: 1
  2487 ;; Hardware stack levels required when called: 2
  2488 ;; This function calls:
  2489 ;;		_I2C_Master_Wait
  2490 ;; This function is called by:
  2491 ;;		_main
  2492 ;;		_writeTime
  2493 ;; This function uses a non-reentrant model
  2494 ;;
  2495                           
  2496     0FA4                     _I2C_Master_Stop:	
  2497                           ;psect for function _I2C_Master_Stop
  2498                           
  2499     0FA4                     l1494:	
  2500                           ;incstack = 0
  2501                           ; Regs used in _I2C_Master_Stop: [wreg+status,2+status,0+pclath+cstack]
  2502                           
  2503                           
  2504                           ;C:/Users/Bryan Ortiz/Desktop/Digital2/LAB4/LAB4D2.X/I2C.c: 57:     I2C_Master_Wait();
  2505     0FA4  120A  158A  27B7  120A  158A  	fcall	_I2C_Master_Wait
  2506     0FA9                     l1496:
  2507                           
  2508                           ;C:/Users/Bryan Ortiz/Desktop/Digital2/LAB4/LAB4D2.X/I2C.c: 58:     SSPCON2bits.PEN = 1;
  2509     0FA9  1683               	bsf	3,5	;RP0=1, select bank1
  2510     0FAA  1303               	bcf	3,6	;RP1=0, select bank1
  2511     0FAB  1511               	bsf	17,2	;volatile
  2512     0FAC                     l44:
  2513     0FAC  0008               	return
  2514     0FAD                     __end_of_I2C_Master_Stop:
  2515                           
  2516                           	psect	text4
  2517     0F9B                     __ptext4:	
  2518 ;; *************** function _I2C_Master_Start *****************
  2519 ;; Defined at:
  2520 ;;		line 39 in file "C:/Users/Bryan Ortiz/Desktop/Digital2/LAB4/LAB4D2.X/I2C.c"
  2521 ;; Parameters:    Size  Location     Type
  2522 ;;		None
  2523 ;; Auto vars:     Size  Location     Type
  2524 ;;		None
  2525 ;; Return value:  Size  Location     Type
  2526 ;;                  1    wreg      void 
  2527 ;; Registers used:
  2528 ;;		wreg, status,2, status,0, pclath, cstack
  2529 ;; Tracked objects:
  2530 ;;		On entry : 0/0
  2531 ;;		On exit  : 0/0
  2532 ;;		Unchanged: 0/0
  2533 ;; Data sizes:     COMMON   BANK0   BANK1   BANK3   BANK2
  2534 ;;      Params:         0       0       0       0       0
  2535 ;;      Locals:         0       0       0       0       0
  2536 ;;      Temps:          0       0       0       0       0
  2537 ;;      Totals:         0       0       0       0       0
  2538 ;;Total ram usage:        0 bytes
  2539 ;; Hardware stack levels used: 1
  2540 ;; Hardware stack levels required when called: 2
  2541 ;; This function calls:
  2542 ;;		_I2C_Master_Wait
  2543 ;; This function is called by:
  2544 ;;		_main
  2545 ;;		_writeTime
  2546 ;; This function uses a non-reentrant model
  2547 ;;
  2548                           
  2549     0F9B                     _I2C_Master_Start:	
  2550                           ;psect for function _I2C_Master_Start
  2551                           
  2552     0F9B                     l1490:	
  2553                           ;incstack = 0
  2554                           ; Regs used in _I2C_Master_Start: [wreg+status,2+status,0+pclath+cstack]
  2555                           
  2556                           
  2557                           ;C:/Users/Bryan Ortiz/Desktop/Digital2/LAB4/LAB4D2.X/I2C.c: 41:     I2C_Master_Wait();
  2558     0F9B  120A  158A  27B7  120A  158A  	fcall	_I2C_Master_Wait
  2559     0FA0                     l1492:
  2560                           
  2561                           ;C:/Users/Bryan Ortiz/Desktop/Digital2/LAB4/LAB4D2.X/I2C.c: 42:     SSPCON2bits.SEN = 1;
  2562     0FA0  1683               	bsf	3,5	;RP0=1, select bank1
  2563     0FA1  1303               	bcf	3,6	;RP1=0, select bank1
  2564     0FA2  1411               	bsf	17,0	;volatile
  2565     0FA3                     l38:
  2566     0FA3  0008               	return
  2567     0FA4                     __end_of_I2C_Master_Start:
  2568                           
  2569                           	psect	text5
  2570     06CB                     __ptext5:	
  2571 ;; *************** function _setup *****************
  2572 ;; Defined at:
  2573 ;;		line 268 in file "C:/Users/Bryan Ortiz/Desktop/Digital2/LAB4/LAB4D2.X/LAB4.c"
  2574 ;; Parameters:    Size  Location     Type
  2575 ;;		None
  2576 ;; Auto vars:     Size  Location     Type
  2577 ;;		None
  2578 ;; Return value:  Size  Location     Type
  2579 ;;                  1    wreg      void 
  2580 ;; Registers used:
  2581 ;;		wreg, status,2, status,0, pclath, cstack
  2582 ;; Tracked objects:
  2583 ;;		On entry : 0/0
  2584 ;;		On exit  : 0/0
  2585 ;;		Unchanged: 0/0
  2586 ;; Data sizes:     COMMON   BANK0   BANK1   BANK3   BANK2
  2587 ;;      Params:         0       0       0       0       0
  2588 ;;      Locals:         0       0       0       0       0
  2589 ;;      Temps:          0       0       0       0       0
  2590 ;;      Totals:         0       0       0       0       0
  2591 ;;Total ram usage:        0 bytes
  2592 ;; Hardware stack levels used: 1
  2593 ;; Hardware stack levels required when called: 4
  2594 ;; This function calls:
  2595 ;;		_I2C_Master_Init
  2596 ;;		_Lcd_Init
  2597 ;; This function is called by:
  2598 ;;		_main
  2599 ;; This function uses a non-reentrant model
  2600 ;;
  2601                           
  2602     06CB                     _setup:	
  2603                           ;psect for function _setup
  2604                           
  2605     06CB                     l1542:	
  2606                           ;incstack = 0
  2607                           ; Regs used in _setup: [wreg+status,2+status,0+pclath+cstack]
  2608                           
  2609                           
  2610                           ;C:/Users/Bryan Ortiz/Desktop/Digital2/LAB4/LAB4D2.X/LAB4.c: 269:     ANSEL = 0;
  2611     06CB  1683               	bsf	3,5	;RP0=1, select bank3
  2612     06CC  1703               	bsf	3,6	;RP1=1, select bank3
  2613     06CD  0188               	clrf	8	;volatile
  2614                           
  2615                           ;C:/Users/Bryan Ortiz/Desktop/Digital2/LAB4/LAB4D2.X/LAB4.c: 270:     ANSELH = 0;
  2616     06CE  0189               	clrf	9	;volatile
  2617     06CF                     l1544:
  2618                           
  2619                           ;C:/Users/Bryan Ortiz/Desktop/Digital2/LAB4/LAB4D2.X/LAB4.c: 271:     TRISB = 0x0F;
  2620     06CF  300F               	movlw	15
  2621     06D0  1683               	bsf	3,5	;RP0=1, select bank1
  2622     06D1  1303               	bcf	3,6	;RP1=0, select bank1
  2623     06D2  0086               	movwf	6	;volatile
  2624     06D3                     l1546:
  2625                           
  2626                           ;C:/Users/Bryan Ortiz/Desktop/Digital2/LAB4/LAB4D2.X/LAB4.c: 272:     TRISD = 0;
  2627     06D3  0188               	clrf	8	;volatile
  2628     06D4                     l1548:
  2629                           
  2630                           ;C:/Users/Bryan Ortiz/Desktop/Digital2/LAB4/LAB4D2.X/LAB4.c: 273:     PORTB = 0;
  2631     06D4  1283               	bcf	3,5	;RP0=0, select bank0
  2632     06D5  1303               	bcf	3,6	;RP1=0, select bank0
  2633     06D6  0186               	clrf	6	;volatile
  2634     06D7                     l1550:
  2635                           
  2636                           ;C:/Users/Bryan Ortiz/Desktop/Digital2/LAB4/LAB4D2.X/LAB4.c: 274:     PORTD = 0;
  2637     06D7  0188               	clrf	8	;volatile
  2638     06D8                     l1552:
  2639                           
  2640                           ;C:/Users/Bryan Ortiz/Desktop/Digital2/LAB4/LAB4D2.X/LAB4.c: 275:     TRISE = 0x00;
  2641     06D8  1683               	bsf	3,5	;RP0=1, select bank1
  2642     06D9  1303               	bcf	3,6	;RP1=0, select bank1
  2643     06DA  0189               	clrf	9	;volatile
  2644     06DB                     l1554:
  2645                           
  2646                           ;C:/Users/Bryan Ortiz/Desktop/Digital2/LAB4/LAB4D2.X/LAB4.c: 276:     PORTEbits.RE0=0;
  2647     06DB  1283               	bcf	3,5	;RP0=0, select bank0
  2648     06DC  1303               	bcf	3,6	;RP1=0, select bank0
  2649     06DD  1009               	bcf	9,0	;volatile
  2650     06DE                     l1556:
  2651                           
  2652                           ;C:/Users/Bryan Ortiz/Desktop/Digital2/LAB4/LAB4D2.X/LAB4.c: 277:     OSCCONbits.IRCF=0b
      +                          111;
  2653     06DE  3070               	movlw	112
  2654     06DF  1683               	bsf	3,5	;RP0=1, select bank1
  2655     06E0  1303               	bcf	3,6	;RP1=0, select bank1
  2656     06E1  048F               	iorwf	15,f	;volatile
  2657     06E2                     l1558:
  2658                           
  2659                           ;C:/Users/Bryan Ortiz/Desktop/Digital2/LAB4/LAB4D2.X/LAB4.c: 278:     OSCCONbits.SCS=1;
  2660     06E2  140F               	bsf	15,0	;volatile
  2661     06E3                     l1560:
  2662                           
  2663                           ;C:/Users/Bryan Ortiz/Desktop/Digital2/LAB4/LAB4D2.X/LAB4.c: 279:     Lcd_Init();
  2664     06E3  120A  118A  267E  120A  118A  	fcall	_Lcd_Init
  2665     06E8                     l1562:
  2666                           
  2667                           ;C:/Users/Bryan Ortiz/Desktop/Digital2/LAB4/LAB4D2.X/LAB4.c: 280:     I2C_Master_Init(10
      +                          0000);
  2668     06E8  3000               	movlw	0
  2669     06E9  1283               	bcf	3,5	;RP0=0, select bank0
  2670     06EA  1303               	bcf	3,6	;RP1=0, select bank0
  2671     06EB  00A8               	movwf	I2C_Master_Init@c+3
  2672     06EC  3001               	movlw	1
  2673     06ED  00A7               	movwf	I2C_Master_Init@c+2
  2674     06EE  3086               	movlw	134
  2675     06EF  00A6               	movwf	I2C_Master_Init@c+1
  2676     06F0  30A0               	movlw	160
  2677     06F1  00A5               	movwf	I2C_Master_Init@c
  2678     06F2  120A  118A  2706  120A  118A  	fcall	_I2C_Master_Init
  2679     06F7                     l1564:
  2680                           
  2681                           ;C:/Users/Bryan Ortiz/Desktop/Digital2/LAB4/LAB4D2.X/LAB4.c: 284:     INTCONbits.GIE = 1
      +                          ;
  2682     06F7  178B               	bsf	11,7	;volatile
  2683     06F8                     l1566:
  2684                           
  2685                           ;C:/Users/Bryan Ortiz/Desktop/Digital2/LAB4/LAB4D2.X/LAB4.c: 285:     INTCONbits.RBIE = 
      +                          1;
  2686     06F8  158B               	bsf	11,3	;volatile
  2687     06F9                     l1568:
  2688                           
  2689                           ;C:/Users/Bryan Ortiz/Desktop/Digital2/LAB4/LAB4D2.X/LAB4.c: 286:     INTCONbits.RBIF = 
      +                          0;
  2690     06F9  100B               	bcf	11,0	;volatile
  2691     06FA                     l1570:
  2692                           
  2693                           ;C:/Users/Bryan Ortiz/Desktop/Digital2/LAB4/LAB4D2.X/LAB4.c: 287:     OPTION_REGbits.nRB
      +                          PU = 0;
  2694     06FA  1683               	bsf	3,5	;RP0=1, select bank1
  2695     06FB  1303               	bcf	3,6	;RP1=0, select bank1
  2696     06FC  1381               	bcf	1,7	;volatile
  2697     06FD                     l1572:
  2698                           
  2699                           ;C:/Users/Bryan Ortiz/Desktop/Digital2/LAB4/LAB4D2.X/LAB4.c: 290:     IOCBbits.IOCB0 = 1
      +                          ;
  2700     06FD  1416               	bsf	22,0	;volatile
  2701     06FE                     l1574:
  2702                           
  2703                           ;C:/Users/Bryan Ortiz/Desktop/Digital2/LAB4/LAB4D2.X/LAB4.c: 291:     WPUBbits.WPUB0 = 1
      +                          ;
  2704     06FE  1415               	bsf	21,0	;volatile
  2705     06FF                     l1576:
  2706                           
  2707                           ;C:/Users/Bryan Ortiz/Desktop/Digital2/LAB4/LAB4D2.X/LAB4.c: 293:     IOCBbits.IOCB1 = 1
      +                          ;
  2708     06FF  1496               	bsf	22,1	;volatile
  2709     0700                     l1578:
  2710                           
  2711                           ;C:/Users/Bryan Ortiz/Desktop/Digital2/LAB4/LAB4D2.X/LAB4.c: 294:     WPUBbits.WPUB1 = 1
      +                          ;
  2712     0700  1495               	bsf	21,1	;volatile
  2713     0701                     l1580:
  2714                           
  2715                           ;C:/Users/Bryan Ortiz/Desktop/Digital2/LAB4/LAB4D2.X/LAB4.c: 296:     IOCBbits.IOCB2 = 1
      +                          ;
  2716     0701  1516               	bsf	22,2	;volatile
  2717     0702                     l1582:
  2718                           
  2719                           ;C:/Users/Bryan Ortiz/Desktop/Digital2/LAB4/LAB4D2.X/LAB4.c: 297:     WPUBbits.WPUB2 = 1
      +                          ;
  2720     0702  1515               	bsf	21,2	;volatile
  2721     0703                     l1584:
  2722                           
  2723                           ;C:/Users/Bryan Ortiz/Desktop/Digital2/LAB4/LAB4D2.X/LAB4.c: 299:     IOCBbits.IOCB3 = 1
      +                          ;
  2724     0703  1596               	bsf	22,3	;volatile
  2725     0704                     l1586:
  2726                           
  2727                           ;C:/Users/Bryan Ortiz/Desktop/Digital2/LAB4/LAB4D2.X/LAB4.c: 300:     WPUBbits.WPUB3 = 1
      +                          ;
  2728     0704  1595               	bsf	21,3	;volatile
  2729     0705                     l196:
  2730     0705  0008               	return
  2731     0706                     __end_of_setup:
  2732                           
  2733                           	psect	text6
  2734     067E                     __ptext6:	
  2735 ;; *************** function _Lcd_Init *****************
  2736 ;; Defined at:
  2737 ;;		line 41 in file "C:/Users/Bryan Ortiz/Desktop/Digital2/LAB4/LAB4D2.X/LCD8B.c"
  2738 ;; Parameters:    Size  Location     Type
  2739 ;;		None
  2740 ;; Auto vars:     Size  Location     Type
  2741 ;;		None
  2742 ;; Return value:  Size  Location     Type
  2743 ;;                  1    wreg      void 
  2744 ;; Registers used:
  2745 ;;		wreg, status,2, status,0, pclath, cstack
  2746 ;; Tracked objects:
  2747 ;;		On entry : 0/0
  2748 ;;		On exit  : 0/0
  2749 ;;		Unchanged: 0/0
  2750 ;; Data sizes:     COMMON   BANK0   BANK1   BANK3   BANK2
  2751 ;;      Params:         0       0       0       0       0
  2752 ;;      Locals:         0       0       0       0       0
  2753 ;;      Temps:          2       0       0       0       0
  2754 ;;      Totals:         2       0       0       0       0
  2755 ;;Total ram usage:        2 bytes
  2756 ;; Hardware stack levels used: 1
  2757 ;; Hardware stack levels required when called: 3
  2758 ;; This function calls:
  2759 ;;		_Lcd_Cmd
  2760 ;;		_Lcd_Port
  2761 ;; This function is called by:
  2762 ;;		_setup
  2763 ;; This function uses a non-reentrant model
  2764 ;;
  2765                           
  2766     067E                     _Lcd_Init:	
  2767                           ;psect for function _Lcd_Init
  2768                           
  2769     067E                     l1512:	
  2770                           ;incstack = 0
  2771                           ; Regs used in _Lcd_Init: [wreg+status,2+status,0+pclath+cstack]
  2772                           
  2773                           
  2774                           ;C:/Users/Bryan Ortiz/Desktop/Digital2/LAB4/LAB4D2.X/LCD8B.c: 42:     Lcd_Port(0x00);
  2775     067E  3000               	movlw	0
  2776     067F  120A  158A  2784  120A  118A  	fcall	_Lcd_Port
  2777     0684                     l1514:
  2778                           
  2779                           ;C:/Users/Bryan Ortiz/Desktop/Digital2/LAB4/LAB4D2.X/LCD8B.c: 43:     _delay((unsigned l
      +                          ong)((15)*(8000000/4000.0)));
  2780     0684  3027               	movlw	39
  2781     0685  00F7               	movwf	??_Lcd_Init+1
  2782     0686  30F5               	movlw	245
  2783     0687  00F6               	movwf	??_Lcd_Init
  2784     0688                     u1347:
  2785     0688  0BF6               	decfsz	??_Lcd_Init,f
  2786     0689  2E88               	goto	u1347
  2787     068A  0BF7               	decfsz	??_Lcd_Init+1,f
  2788     068B  2E88               	goto	u1347
  2789     068C                     l1516:
  2790                           
  2791                           ;C:/Users/Bryan Ortiz/Desktop/Digital2/LAB4/LAB4D2.X/LCD8B.c: 44:     Lcd_Cmd(0x30);
  2792     068C  3030               	movlw	48
  2793     068D  120A  158A  27E6  120A  118A  	fcall	_Lcd_Cmd
  2794                           
  2795                           ;C:/Users/Bryan Ortiz/Desktop/Digital2/LAB4/LAB4D2.X/LCD8B.c: 45:     _delay((unsigned l
      +                          ong)((4)*(8000000/4000.0)));
  2796     0692  300B               	movlw	11
  2797     0693  00F7               	movwf	??_Lcd_Init+1
  2798     0694  3062               	movlw	98
  2799     0695  00F6               	movwf	??_Lcd_Init
  2800     0696                     u1357:
  2801     0696  0BF6               	decfsz	??_Lcd_Init,f
  2802     0697  2E96               	goto	u1357
  2803     0698  0BF7               	decfsz	??_Lcd_Init+1,f
  2804     0699  2E96               	goto	u1357
  2805     069A  0000               	nop
  2806     069B                     l1518:
  2807                           
  2808                           ;C:/Users/Bryan Ortiz/Desktop/Digital2/LAB4/LAB4D2.X/LCD8B.c: 46:     Lcd_Cmd(0x30);
  2809     069B  3030               	movlw	48
  2810     069C  120A  158A  27E6  120A  118A  	fcall	_Lcd_Cmd
  2811     06A1                     l1520:
  2812                           
  2813                           ;C:/Users/Bryan Ortiz/Desktop/Digital2/LAB4/LAB4D2.X/LCD8B.c: 47:     _delay((unsigned l
      +                          ong)((100)*(8000000/4000000.0)));
  2814     06A1  3042               	movlw	66
  2815     06A2  00F6               	movwf	??_Lcd_Init
  2816     06A3                     u1367:
  2817     06A3  0BF6               	decfsz	??_Lcd_Init,f
  2818     06A4  2EA3               	goto	u1367
  2819     06A5  0000               	nop
  2820                           
  2821                           ;C:/Users/Bryan Ortiz/Desktop/Digital2/LAB4/LAB4D2.X/LCD8B.c: 48:     Lcd_Cmd(0x30);
  2822     06A6  3030               	movlw	48
  2823     06A7  120A  158A  27E6  120A  118A  	fcall	_Lcd_Cmd
  2824                           
  2825                           ;C:/Users/Bryan Ortiz/Desktop/Digital2/LAB4/LAB4D2.X/LCD8B.c: 50:     Lcd_Cmd(0x38);
  2826     06AC  3038               	movlw	56
  2827     06AD  120A  158A  27E6  120A  118A  	fcall	_Lcd_Cmd
  2828                           
  2829                           ;C:/Users/Bryan Ortiz/Desktop/Digital2/LAB4/LAB4D2.X/LCD8B.c: 51:     Lcd_Cmd(0x00);
  2830     06B2  3000               	movlw	0
  2831     06B3  120A  158A  27E6  120A  118A  	fcall	_Lcd_Cmd
  2832                           
  2833                           ;C:/Users/Bryan Ortiz/Desktop/Digital2/LAB4/LAB4D2.X/LCD8B.c: 52:     Lcd_Cmd(0x0C);
  2834     06B8  300C               	movlw	12
  2835     06B9  120A  158A  27E6  120A  118A  	fcall	_Lcd_Cmd
  2836                           
  2837                           ;C:/Users/Bryan Ortiz/Desktop/Digital2/LAB4/LAB4D2.X/LCD8B.c: 53:     Lcd_Cmd(0x00);
  2838     06BE  3000               	movlw	0
  2839     06BF  120A  158A  27E6  120A  118A  	fcall	_Lcd_Cmd
  2840                           
  2841                           ;C:/Users/Bryan Ortiz/Desktop/Digital2/LAB4/LAB4D2.X/LCD8B.c: 54:     Lcd_Cmd(0x06);
  2842     06C4  3006               	movlw	6
  2843     06C5  120A  158A  27E6  120A  118A  	fcall	_Lcd_Cmd
  2844     06CA                     l225:
  2845     06CA  0008               	return
  2846     06CB                     __end_of_Lcd_Init:
  2847                           
  2848                           	psect	text7
  2849     0706                     __ptext7:	
  2850 ;; *************** function _I2C_Master_Init *****************
  2851 ;; Defined at:
  2852 ;;		line 16 in file "C:/Users/Bryan Ortiz/Desktop/Digital2/LAB4/LAB4D2.X/I2C.c"
  2853 ;; Parameters:    Size  Location     Type
  2854 ;;  c               4    5[BANK0 ] const unsigned long 
  2855 ;; Auto vars:     Size  Location     Type
  2856 ;;		None
  2857 ;; Return value:  Size  Location     Type
  2858 ;;                  1    wreg      void 
  2859 ;; Registers used:
  2860 ;;		wreg, status,2, status,0, pclath, cstack
  2861 ;; Tracked objects:
  2862 ;;		On entry : 0/0
  2863 ;;		On exit  : 0/0
  2864 ;;		Unchanged: 0/0
  2865 ;; Data sizes:     COMMON   BANK0   BANK1   BANK3   BANK2
  2866 ;;      Params:         0       4       0       0       0
  2867 ;;      Locals:         0       0       0       0       0
  2868 ;;      Temps:          0       4       0       0       0
  2869 ;;      Totals:         0       8       0       0       0
  2870 ;;Total ram usage:        8 bytes
  2871 ;; Hardware stack levels used: 1
  2872 ;; Hardware stack levels required when called: 2
  2873 ;; This function calls:
  2874 ;;		___lldiv
  2875 ;; This function is called by:
  2876 ;;		_setup
  2877 ;; This function uses a non-reentrant model
  2878 ;;
  2879                           
  2880     0706                     _I2C_Master_Init:	
  2881                           ;psect for function _I2C_Master_Init
  2882                           
  2883     0706                     l1478:	
  2884                           ;incstack = 0
  2885                           ; Regs used in _I2C_Master_Init: [wreg+status,2+status,0+pclath+cstack]
  2886                           
  2887                           
  2888                           ;C:/Users/Bryan Ortiz/Desktop/Digital2/LAB4/LAB4D2.X/I2C.c: 16: void I2C_Master_Init(con
      +                          st unsigned long c);C:/Users/Bryan Ortiz/Desktop/Digital2/LAB4/LAB4D2.X/I2C.c: 17: {;C:/
      +                          Users/Bryan Ortiz/Desktop/Digital2/LAB4/LAB4D2.X/I2C.c: 18:     SSPCON = 0b00101000;
  2889     0706  3028               	movlw	40
  2890     0707  1283               	bcf	3,5	;RP0=0, select bank0
  2891     0708  1303               	bcf	3,6	;RP1=0, select bank0
  2892     0709  0094               	movwf	20	;volatile
  2893     070A                     l1480:
  2894                           
  2895                           ;C:/Users/Bryan Ortiz/Desktop/Digital2/LAB4/LAB4D2.X/I2C.c: 19:     SSPCON2 = 0;
  2896     070A  1683               	bsf	3,5	;RP0=1, select bank1
  2897     070B  1303               	bcf	3,6	;RP1=0, select bank1
  2898     070C  0191               	clrf	17	;volatile
  2899     070D                     l1482:
  2900                           
  2901                           ;C:/Users/Bryan Ortiz/Desktop/Digital2/LAB4/LAB4D2.X/I2C.c: 20:     SSPADD = (8000000/(4
      +                          *c))-1;
  2902     070D  1283               	bcf	3,5	;RP0=0, select bank0
  2903     070E  1303               	bcf	3,6	;RP1=0, select bank0
  2904     070F  0825               	movf	I2C_Master_Init@c,w
  2905     0710  00A9               	movwf	??_I2C_Master_Init
  2906     0711  0826               	movf	I2C_Master_Init@c+1,w
  2907     0712  00AA               	movwf	??_I2C_Master_Init+1
  2908     0713  0827               	movf	I2C_Master_Init@c+2,w
  2909     0714  00AB               	movwf	??_I2C_Master_Init+2
  2910     0715  0828               	movf	I2C_Master_Init@c+3,w
  2911     0716  00AC               	movwf	??_I2C_Master_Init+3
  2912     0717  3002               	movlw	2
  2913     0718                     u745:
  2914     0718  1003               	clrc
  2915     0719  0DA9               	rlf	??_I2C_Master_Init,f
  2916     071A  0DAA               	rlf	??_I2C_Master_Init+1,f
  2917     071B  0DAB               	rlf	??_I2C_Master_Init+2,f
  2918     071C  0DAC               	rlf	??_I2C_Master_Init+3,f
  2919     071D                     u740:
  2920     071D  3EFF               	addlw	-1
  2921     071E  1D03               	skipz
  2922     071F  2F18               	goto	u745
  2923     0720  082C               	movf	??_I2C_Master_Init+3,w
  2924     0721  00F5               	movwf	___lldiv@divisor+3
  2925     0722  082B               	movf	??_I2C_Master_Init+2,w
  2926     0723  00F4               	movwf	___lldiv@divisor+2
  2927     0724  082A               	movf	??_I2C_Master_Init+1,w
  2928     0725  00F3               	movwf	___lldiv@divisor+1
  2929     0726  0829               	movf	??_I2C_Master_Init,w
  2930     0727  00F2               	movwf	___lldiv@divisor
  2931     0728  3000               	movlw	0
  2932     0729  00F9               	movwf	___lldiv@dividend+3
  2933     072A  307A               	movlw	122
  2934     072B  00F8               	movwf	___lldiv@dividend+2
  2935     072C  3012               	movlw	18
  2936     072D  00F7               	movwf	___lldiv@dividend+1
  2937     072E  3000               	movlw	0
  2938     072F  00F6               	movwf	___lldiv@dividend
  2939     0730  120A  118A  2554  120A  118A  	fcall	___lldiv
  2940     0735  0872               	movf	?___lldiv,w
  2941     0736  3EFF               	addlw	255
  2942     0737  1683               	bsf	3,5	;RP0=1, select bank1
  2943     0738  1303               	bcf	3,6	;RP1=0, select bank1
  2944     0739  0093               	movwf	19	;volatile
  2945     073A                     l1484:
  2946                           
  2947                           ;C:/Users/Bryan Ortiz/Desktop/Digital2/LAB4/LAB4D2.X/I2C.c: 21:     SSPSTAT = 0;
  2948     073A  0194               	clrf	20	;volatile
  2949     073B                     l1486:
  2950                           
  2951                           ;C:/Users/Bryan Ortiz/Desktop/Digital2/LAB4/LAB4D2.X/I2C.c: 22:     TRISCbits.TRISC3 = 1
      +                          ;
  2952     073B  1587               	bsf	7,3	;volatile
  2953     073C                     l1488:
  2954                           
  2955                           ;C:/Users/Bryan Ortiz/Desktop/Digital2/LAB4/LAB4D2.X/I2C.c: 23:     TRISCbits.TRISC4 = 1
      +                          ;
  2956     073C  1607               	bsf	7,4	;volatile
  2957     073D                     l29:
  2958     073D  0008               	return
  2959     073E                     __end_of_I2C_Master_Init:
  2960                           
  2961                           	psect	text8
  2962     0554                     __ptext8:	
  2963 ;; *************** function ___lldiv *****************
  2964 ;; Defined at:
  2965 ;;		line 5 in file "C:\Program Files\Microchip\xc8\v2.40\pic\sources\c90\common\__lldiv.c"
  2966 ;; Parameters:    Size  Location     Type
  2967 ;;  divisor         4    2[COMMON] unsigned long 
  2968 ;;  dividend        4    6[COMMON] unsigned long 
  2969 ;; Auto vars:     Size  Location     Type
  2970 ;;  quotient        4    0[BANK0 ] unsigned long 
  2971 ;;  counter         1    4[BANK0 ] unsigned char 
  2972 ;; Return value:  Size  Location     Type
  2973 ;;                  4    2[COMMON] unsigned long 
  2974 ;; Registers used:
  2975 ;;		wreg, status,2, status,0
  2976 ;; Tracked objects:
  2977 ;;		On entry : 0/0
  2978 ;;		On exit  : 0/0
  2979 ;;		Unchanged: 0/0
  2980 ;; Data sizes:     COMMON   BANK0   BANK1   BANK3   BANK2
  2981 ;;      Params:         8       0       0       0       0
  2982 ;;      Locals:         0       5       0       0       0
  2983 ;;      Temps:          1       0       0       0       0
  2984 ;;      Totals:         9       5       0       0       0
  2985 ;;Total ram usage:       14 bytes
  2986 ;; Hardware stack levels used: 1
  2987 ;; Hardware stack levels required when called: 1
  2988 ;; This function calls:
  2989 ;;		Nothing
  2990 ;; This function is called by:
  2991 ;;		_I2C_Master_Init
  2992 ;; This function uses a non-reentrant model
  2993 ;;
  2994                           
  2995     0554                     ___lldiv:	
  2996                           ;psect for function ___lldiv
  2997                           
  2998     0554                     l1454:	
  2999                           ;incstack = 0
  3000                           ; Regs used in ___lldiv: [wreg+status,2+status,0]
  3001                           
  3002     0554  3000               	movlw	0
  3003     0555  1283               	bcf	3,5	;RP0=0, select bank0
  3004     0556  1303               	bcf	3,6	;RP1=0, select bank0
  3005     0557  00A3               	movwf	___lldiv@quotient+3
  3006     0558  3000               	movlw	0
  3007     0559  00A2               	movwf	___lldiv@quotient+2
  3008     055A  3000               	movlw	0
  3009     055B  00A1               	movwf	___lldiv@quotient+1
  3010     055C  3000               	movlw	0
  3011     055D  00A0               	movwf	___lldiv@quotient
  3012     055E  0875               	movf	___lldiv@divisor+3,w
  3013     055F  0474               	iorwf	___lldiv@divisor+2,w
  3014     0560  0473               	iorwf	___lldiv@divisor+1,w
  3015     0561  0472               	iorwf	___lldiv@divisor,w
  3016     0562  1903               	skipnz
  3017     0563  2D65               	goto	u671
  3018     0564  2D66               	goto	u670
  3019     0565                     u671:
  3020     0565  2DB3               	goto	l1474
  3021     0566                     u670:
  3022     0566                     l1456:
  3023     0566  01A4               	clrf	___lldiv@counter
  3024     0567  0AA4               	incf	___lldiv@counter,f
  3025     0568  2D76               	goto	l1460
  3026     0569                     l1458:
  3027     0569  3001               	movlw	1
  3028     056A  00FA               	movwf	??___lldiv
  3029     056B                     u685:
  3030     056B  1003               	clrc
  3031     056C  0DF2               	rlf	___lldiv@divisor,f
  3032     056D  0DF3               	rlf	___lldiv@divisor+1,f
  3033     056E  0DF4               	rlf	___lldiv@divisor+2,f
  3034     056F  0DF5               	rlf	___lldiv@divisor+3,f
  3035     0570  0BFA               	decfsz	??___lldiv,f
  3036     0571  2D6B               	goto	u685
  3037     0572  3001               	movlw	1
  3038     0573  00FA               	movwf	??___lldiv
  3039     0574  087A               	movf	??___lldiv,w
  3040     0575  07A4               	addwf	___lldiv@counter,f
  3041     0576                     l1460:
  3042     0576  1FF5               	btfss	___lldiv@divisor+3,7
  3043     0577  2D79               	goto	u691
  3044     0578  2D7A               	goto	u690
  3045     0579                     u691:
  3046     0579  2D69               	goto	l1458
  3047     057A                     u690:
  3048     057A                     l1462:
  3049     057A  3001               	movlw	1
  3050     057B  00FA               	movwf	??___lldiv
  3051     057C                     u705:
  3052     057C  1003               	clrc
  3053     057D  0DA0               	rlf	___lldiv@quotient,f
  3054     057E  0DA1               	rlf	___lldiv@quotient+1,f
  3055     057F  0DA2               	rlf	___lldiv@quotient+2,f
  3056     0580  0DA3               	rlf	___lldiv@quotient+3,f
  3057     0581  0BFA               	decfsz	??___lldiv,f
  3058     0582  2D7C               	goto	u705
  3059     0583                     l1464:
  3060     0583  0875               	movf	___lldiv@divisor+3,w
  3061     0584  0279               	subwf	___lldiv@dividend+3,w
  3062     0585  1D03               	skipz
  3063     0586  2D91               	goto	u715
  3064     0587  0874               	movf	___lldiv@divisor+2,w
  3065     0588  0278               	subwf	___lldiv@dividend+2,w
  3066     0589  1D03               	skipz
  3067     058A  2D91               	goto	u715
  3068     058B  0873               	movf	___lldiv@divisor+1,w
  3069     058C  0277               	subwf	___lldiv@dividend+1,w
  3070     058D  1D03               	skipz
  3071     058E  2D91               	goto	u715
  3072     058F  0872               	movf	___lldiv@divisor,w
  3073     0590  0276               	subwf	___lldiv@dividend,w
  3074     0591                     u715:
  3075     0591  1C03               	skipc
  3076     0592  2D94               	goto	u711
  3077     0593  2D95               	goto	u710
  3078     0594                     u711:
  3079     0594  2DA4               	goto	l1470
  3080     0595                     u710:
  3081     0595                     l1466:
  3082     0595  0872               	movf	___lldiv@divisor,w
  3083     0596  02F6               	subwf	___lldiv@dividend,f
  3084     0597  0873               	movf	___lldiv@divisor+1,w
  3085     0598  1C03               	skipc
  3086     0599  0F73               	incfsz	___lldiv@divisor+1,w
  3087     059A  02F7               	subwf	___lldiv@dividend+1,f
  3088     059B  0874               	movf	___lldiv@divisor+2,w
  3089     059C  1C03               	skipc
  3090     059D  0F74               	incfsz	___lldiv@divisor+2,w
  3091     059E  02F8               	subwf	___lldiv@dividend+2,f
  3092     059F  0875               	movf	___lldiv@divisor+3,w
  3093     05A0  1C03               	skipc
  3094     05A1  0F75               	incfsz	___lldiv@divisor+3,w
  3095     05A2  02F9               	subwf	___lldiv@dividend+3,f
  3096     05A3                     l1468:
  3097     05A3  1420               	bsf	___lldiv@quotient,0
  3098     05A4                     l1470:
  3099     05A4  3001               	movlw	1
  3100     05A5                     u725:
  3101     05A5  1003               	clrc
  3102     05A6  0CF5               	rrf	___lldiv@divisor+3,f
  3103     05A7  0CF4               	rrf	___lldiv@divisor+2,f
  3104     05A8  0CF3               	rrf	___lldiv@divisor+1,f
  3105     05A9  0CF2               	rrf	___lldiv@divisor,f
  3106     05AA  3EFF               	addlw	-1
  3107     05AB  1D03               	skipz
  3108     05AC  2DA5               	goto	u725
  3109     05AD                     l1472:
  3110     05AD  3001               	movlw	1
  3111     05AE  02A4               	subwf	___lldiv@counter,f
  3112     05AF  1D03               	btfss	3,2
  3113     05B0  2DB2               	goto	u731
  3114     05B1  2DB3               	goto	u730
  3115     05B2                     u731:
  3116     05B2  2D7A               	goto	l1462
  3117     05B3                     u730:
  3118     05B3                     l1474:
  3119     05B3  0823               	movf	___lldiv@quotient+3,w
  3120     05B4  00F5               	movwf	?___lldiv+3
  3121     05B5  0822               	movf	___lldiv@quotient+2,w
  3122     05B6  00F4               	movwf	?___lldiv+2
  3123     05B7  0821               	movf	___lldiv@quotient+1,w
  3124     05B8  00F3               	movwf	?___lldiv+1
  3125     05B9  0820               	movf	___lldiv@quotient,w
  3126     05BA  00F2               	movwf	?___lldiv
  3127     05BB                     l362:
  3128     05BB  0008               	return
  3129     05BC                     __end_of___lldiv:
  3130                           
  3131                           	psect	text9
  3132     0623                     __ptext9:	
  3133 ;; *************** function ___awmod *****************
  3134 ;; Defined at:
  3135 ;;		line 5 in file "C:\Program Files\Microchip\xc8\v2.40\pic\sources\c90\common\awmod.c"
  3136 ;; Parameters:    Size  Location     Type
  3137 ;;  divisor         2    0[BANK0 ] int 
  3138 ;;  dividend        2    2[BANK0 ] int 
  3139 ;; Auto vars:     Size  Location     Type
  3140 ;;  sign            1    5[BANK0 ] unsigned char 
  3141 ;;  counter         1    4[BANK0 ] unsigned char 
  3142 ;; Return value:  Size  Location     Type
  3143 ;;                  2    0[BANK0 ] int 
  3144 ;; Registers used:
  3145 ;;		wreg, status,2, status,0
  3146 ;; Tracked objects:
  3147 ;;		On entry : 0/0
  3148 ;;		On exit  : 0/0
  3149 ;;		Unchanged: 0/0
  3150 ;; Data sizes:     COMMON   BANK0   BANK1   BANK3   BANK2
  3151 ;;      Params:         0       4       0       0       0
  3152 ;;      Locals:         0       2       0       0       0
  3153 ;;      Temps:          1       0       0       0       0
  3154 ;;      Totals:         1       6       0       0       0
  3155 ;;Total ram usage:        7 bytes
  3156 ;; Hardware stack levels used: 1
  3157 ;; Hardware stack levels required when called: 1
  3158 ;; This function calls:
  3159 ;;		Nothing
  3160 ;; This function is called by:
  3161 ;;		_main
  3162 ;; This function uses a non-reentrant model
  3163 ;;
  3164                           
  3165     0623                     ___awmod:	
  3166                           ;psect for function ___awmod
  3167                           
  3168     0623                     l1658:	
  3169                           ;incstack = 0
  3170                           ; Regs used in ___awmod: [wreg+status,2+status,0]
  3171                           
  3172     0623  1283               	bcf	3,5	;RP0=0, select bank0
  3173     0624  1303               	bcf	3,6	;RP1=0, select bank0
  3174     0625  01A5               	clrf	___awmod@sign
  3175     0626                     l1660:
  3176     0626  1FA3               	btfss	___awmod@dividend+1,7
  3177     0627  2E29               	goto	u891
  3178     0628  2E2A               	goto	u890
  3179     0629                     u891:
  3180     0629  2E31               	goto	l1666
  3181     062A                     u890:
  3182     062A                     l1662:
  3183     062A  09A2               	comf	___awmod@dividend,f
  3184     062B  09A3               	comf	___awmod@dividend+1,f
  3185     062C  0AA2               	incf	___awmod@dividend,f
  3186     062D  1903               	skipnz
  3187     062E  0AA3               	incf	___awmod@dividend+1,f
  3188     062F                     l1664:
  3189     062F  01A5               	clrf	___awmod@sign
  3190     0630  0AA5               	incf	___awmod@sign,f
  3191     0631                     l1666:
  3192     0631  1FA1               	btfss	___awmod@divisor+1,7
  3193     0632  2E34               	goto	u901
  3194     0633  2E35               	goto	u900
  3195     0634                     u901:
  3196     0634  2E3A               	goto	l1670
  3197     0635                     u900:
  3198     0635                     l1668:
  3199     0635  09A0               	comf	___awmod@divisor,f
  3200     0636  09A1               	comf	___awmod@divisor+1,f
  3201     0637  0AA0               	incf	___awmod@divisor,f
  3202     0638  1903               	skipnz
  3203     0639  0AA1               	incf	___awmod@divisor+1,f
  3204     063A                     l1670:
  3205     063A  0820               	movf	___awmod@divisor,w
  3206     063B  0421               	iorwf	___awmod@divisor+1,w
  3207     063C  1903               	btfsc	3,2
  3208     063D  2E3F               	goto	u911
  3209     063E  2E40               	goto	u910
  3210     063F                     u911:
  3211     063F  2E6F               	goto	l1688
  3212     0640                     u910:
  3213     0640                     l1672:
  3214     0640  01A4               	clrf	___awmod@counter
  3215     0641  0AA4               	incf	___awmod@counter,f
  3216     0642  2E4E               	goto	l1678
  3217     0643                     l1674:
  3218     0643  3001               	movlw	1
  3219     0644                     u925:
  3220     0644  1003               	clrc
  3221     0645  0DA0               	rlf	___awmod@divisor,f
  3222     0646  0DA1               	rlf	___awmod@divisor+1,f
  3223     0647  3EFF               	addlw	-1
  3224     0648  1D03               	skipz
  3225     0649  2E44               	goto	u925
  3226     064A                     l1676:
  3227     064A  3001               	movlw	1
  3228     064B  00FB               	movwf	??___awmod
  3229     064C  087B               	movf	??___awmod,w
  3230     064D  07A4               	addwf	___awmod@counter,f
  3231     064E                     l1678:
  3232     064E  1FA1               	btfss	___awmod@divisor+1,7
  3233     064F  2E51               	goto	u931
  3234     0650  2E52               	goto	u930
  3235     0651                     u931:
  3236     0651  2E43               	goto	l1674
  3237     0652                     u930:
  3238     0652                     l1680:
  3239     0652  0821               	movf	___awmod@divisor+1,w
  3240     0653  0223               	subwf	___awmod@dividend+1,w
  3241     0654  1D03               	skipz
  3242     0655  2E58               	goto	u945
  3243     0656  0820               	movf	___awmod@divisor,w
  3244     0657  0222               	subwf	___awmod@dividend,w
  3245     0658                     u945:
  3246     0658  1C03               	skipc
  3247     0659  2E5B               	goto	u941
  3248     065A  2E5C               	goto	u940
  3249     065B                     u941:
  3250     065B  2E62               	goto	l1684
  3251     065C                     u940:
  3252     065C                     l1682:
  3253     065C  0820               	movf	___awmod@divisor,w
  3254     065D  02A2               	subwf	___awmod@dividend,f
  3255     065E  0821               	movf	___awmod@divisor+1,w
  3256     065F  1C03               	skipc
  3257     0660  03A3               	decf	___awmod@dividend+1,f
  3258     0661  02A3               	subwf	___awmod@dividend+1,f
  3259     0662                     l1684:
  3260     0662  3001               	movlw	1
  3261     0663                     u955:
  3262     0663  1003               	clrc
  3263     0664  0CA1               	rrf	___awmod@divisor+1,f
  3264     0665  0CA0               	rrf	___awmod@divisor,f
  3265     0666  3EFF               	addlw	-1
  3266     0667  1D03               	skipz
  3267     0668  2E63               	goto	u955
  3268     0669                     l1686:
  3269     0669  3001               	movlw	1
  3270     066A  02A4               	subwf	___awmod@counter,f
  3271     066B  1D03               	btfss	3,2
  3272     066C  2E6E               	goto	u961
  3273     066D  2E6F               	goto	u960
  3274     066E                     u961:
  3275     066E  2E52               	goto	l1680
  3276     066F                     u960:
  3277     066F                     l1688:
  3278     066F  0825               	movf	___awmod@sign,w
  3279     0670  1903               	btfsc	3,2
  3280     0671  2E73               	goto	u971
  3281     0672  2E74               	goto	u970
  3282     0673                     u971:
  3283     0673  2E79               	goto	l1692
  3284     0674                     u970:
  3285     0674                     l1690:
  3286     0674  09A2               	comf	___awmod@dividend,f
  3287     0675  09A3               	comf	___awmod@dividend+1,f
  3288     0676  0AA2               	incf	___awmod@dividend,f
  3289     0677  1903               	skipnz
  3290     0678  0AA3               	incf	___awmod@dividend+1,f
  3291     0679                     l1692:
  3292     0679  0823               	movf	___awmod@dividend+1,w
  3293     067A  00A1               	movwf	?___awmod+1
  3294     067B  0822               	movf	___awmod@dividend,w
  3295     067C  00A0               	movwf	?___awmod
  3296     067D                     l492:
  3297     067D  0008               	return
  3298     067E                     __end_of___awmod:
  3299                           
  3300                           	psect	text10
  3301     05BC                     __ptext10:	
  3302 ;; *************** function ___awdiv *****************
  3303 ;; Defined at:
  3304 ;;		line 5 in file "C:\Program Files\Microchip\xc8\v2.40\pic\sources\c90\common\awdiv.c"
  3305 ;; Parameters:    Size  Location     Type
  3306 ;;  divisor         2    2[COMMON] int 
  3307 ;;  dividend        2    4[COMMON] int 
  3308 ;; Auto vars:     Size  Location     Type
  3309 ;;  quotient        2    9[COMMON] int 
  3310 ;;  sign            1    8[COMMON] unsigned char 
  3311 ;;  counter         1    7[COMMON] unsigned char 
  3312 ;; Return value:  Size  Location     Type
  3313 ;;                  2    2[COMMON] int 
  3314 ;; Registers used:
  3315 ;;		wreg, status,2, status,0
  3316 ;; Tracked objects:
  3317 ;;		On entry : 0/0
  3318 ;;		On exit  : 0/0
  3319 ;;		Unchanged: 0/0
  3320 ;; Data sizes:     COMMON   BANK0   BANK1   BANK3   BANK2
  3321 ;;      Params:         4       0       0       0       0
  3322 ;;      Locals:         4       0       0       0       0
  3323 ;;      Temps:          1       0       0       0       0
  3324 ;;      Totals:         9       0       0       0       0
  3325 ;;Total ram usage:        9 bytes
  3326 ;; Hardware stack levels used: 1
  3327 ;; Hardware stack levels required when called: 1
  3328 ;; This function calls:
  3329 ;;		Nothing
  3330 ;; This function is called by:
  3331 ;;		_main
  3332 ;; This function uses a non-reentrant model
  3333 ;;
  3334                           
  3335     05BC                     ___awdiv:	
  3336                           ;psect for function ___awdiv
  3337                           
  3338     05BC                     l1614:	
  3339                           ;incstack = 0
  3340                           ; Regs used in ___awdiv: [wreg+status,2+status,0]
  3341                           
  3342     05BC  01F8               	clrf	___awdiv@sign
  3343     05BD                     l1616:
  3344     05BD  1FF3               	btfss	___awdiv@divisor+1,7
  3345     05BE  2DC0               	goto	u791
  3346     05BF  2DC1               	goto	u790
  3347     05C0                     u791:
  3348     05C0  2DC8               	goto	l1622
  3349     05C1                     u790:
  3350     05C1                     l1618:
  3351     05C1  09F2               	comf	___awdiv@divisor,f
  3352     05C2  09F3               	comf	___awdiv@divisor+1,f
  3353     05C3  0AF2               	incf	___awdiv@divisor,f
  3354     05C4  1903               	skipnz
  3355     05C5  0AF3               	incf	___awdiv@divisor+1,f
  3356     05C6                     l1620:
  3357     05C6  01F8               	clrf	___awdiv@sign
  3358     05C7  0AF8               	incf	___awdiv@sign,f
  3359     05C8                     l1622:
  3360     05C8  1FF5               	btfss	___awdiv@dividend+1,7
  3361     05C9  2DCB               	goto	u801
  3362     05CA  2DCC               	goto	u800
  3363     05CB                     u801:
  3364     05CB  2DD5               	goto	l1628
  3365     05CC                     u800:
  3366     05CC                     l1624:
  3367     05CC  09F4               	comf	___awdiv@dividend,f
  3368     05CD  09F5               	comf	___awdiv@dividend+1,f
  3369     05CE  0AF4               	incf	___awdiv@dividend,f
  3370     05CF  1903               	skipnz
  3371     05D0  0AF5               	incf	___awdiv@dividend+1,f
  3372     05D1                     l1626:
  3373     05D1  3001               	movlw	1
  3374     05D2  00F6               	movwf	??___awdiv
  3375     05D3  0876               	movf	??___awdiv,w
  3376     05D4  06F8               	xorwf	___awdiv@sign,f
  3377     05D5                     l1628:
  3378     05D5  01F9               	clrf	___awdiv@quotient
  3379     05D6  01FA               	clrf	___awdiv@quotient+1
  3380     05D7                     l1630:
  3381     05D7  0872               	movf	___awdiv@divisor,w
  3382     05D8  0473               	iorwf	___awdiv@divisor+1,w
  3383     05D9  1903               	btfsc	3,2
  3384     05DA  2DDC               	goto	u811
  3385     05DB  2DDD               	goto	u810
  3386     05DC                     u811:
  3387     05DC  2E14               	goto	l1650
  3388     05DD                     u810:
  3389     05DD                     l1632:
  3390     05DD  01F7               	clrf	___awdiv@counter
  3391     05DE  0AF7               	incf	___awdiv@counter,f
  3392     05DF  2DEB               	goto	l1638
  3393     05E0                     l1634:
  3394     05E0  3001               	movlw	1
  3395     05E1                     u825:
  3396     05E1  1003               	clrc
  3397     05E2  0DF2               	rlf	___awdiv@divisor,f
  3398     05E3  0DF3               	rlf	___awdiv@divisor+1,f
  3399     05E4  3EFF               	addlw	-1
  3400     05E5  1D03               	skipz
  3401     05E6  2DE1               	goto	u825
  3402     05E7                     l1636:
  3403     05E7  3001               	movlw	1
  3404     05E8  00F6               	movwf	??___awdiv
  3405     05E9  0876               	movf	??___awdiv,w
  3406     05EA  07F7               	addwf	___awdiv@counter,f
  3407     05EB                     l1638:
  3408     05EB  1FF3               	btfss	___awdiv@divisor+1,7
  3409     05EC  2DEE               	goto	u831
  3410     05ED  2DEF               	goto	u830
  3411     05EE                     u831:
  3412     05EE  2DE0               	goto	l1634
  3413     05EF                     u830:
  3414     05EF                     l1640:
  3415     05EF  3001               	movlw	1
  3416     05F0                     u845:
  3417     05F0  1003               	clrc
  3418     05F1  0DF9               	rlf	___awdiv@quotient,f
  3419     05F2  0DFA               	rlf	___awdiv@quotient+1,f
  3420     05F3  3EFF               	addlw	-1
  3421     05F4  1D03               	skipz
  3422     05F5  2DF0               	goto	u845
  3423     05F6  0873               	movf	___awdiv@divisor+1,w
  3424     05F7  0275               	subwf	___awdiv@dividend+1,w
  3425     05F8  1D03               	skipz
  3426     05F9  2DFC               	goto	u855
  3427     05FA  0872               	movf	___awdiv@divisor,w
  3428     05FB  0274               	subwf	___awdiv@dividend,w
  3429     05FC                     u855:
  3430     05FC  1C03               	skipc
  3431     05FD  2DFF               	goto	u851
  3432     05FE  2E00               	goto	u850
  3433     05FF                     u851:
  3434     05FF  2E07               	goto	l1646
  3435     0600                     u850:
  3436     0600                     l1642:
  3437     0600  0872               	movf	___awdiv@divisor,w
  3438     0601  02F4               	subwf	___awdiv@dividend,f
  3439     0602  0873               	movf	___awdiv@divisor+1,w
  3440     0603  1C03               	skipc
  3441     0604  03F5               	decf	___awdiv@dividend+1,f
  3442     0605  02F5               	subwf	___awdiv@dividend+1,f
  3443     0606                     l1644:
  3444     0606  1479               	bsf	___awdiv@quotient,0
  3445     0607                     l1646:
  3446     0607  3001               	movlw	1
  3447     0608                     u865:
  3448     0608  1003               	clrc
  3449     0609  0CF3               	rrf	___awdiv@divisor+1,f
  3450     060A  0CF2               	rrf	___awdiv@divisor,f
  3451     060B  3EFF               	addlw	-1
  3452     060C  1D03               	skipz
  3453     060D  2E08               	goto	u865
  3454     060E                     l1648:
  3455     060E  3001               	movlw	1
  3456     060F  02F7               	subwf	___awdiv@counter,f
  3457     0610  1D03               	btfss	3,2
  3458     0611  2E13               	goto	u871
  3459     0612  2E14               	goto	u870
  3460     0613                     u871:
  3461     0613  2DEF               	goto	l1640
  3462     0614                     u870:
  3463     0614                     l1650:
  3464     0614  0878               	movf	___awdiv@sign,w
  3465     0615  1903               	btfsc	3,2
  3466     0616  2E18               	goto	u881
  3467     0617  2E19               	goto	u880
  3468     0618                     u881:
  3469     0618  2E1E               	goto	l1654
  3470     0619                     u880:
  3471     0619                     l1652:
  3472     0619  09F9               	comf	___awdiv@quotient,f
  3473     061A  09FA               	comf	___awdiv@quotient+1,f
  3474     061B  0AF9               	incf	___awdiv@quotient,f
  3475     061C  1903               	skipnz
  3476     061D  0AFA               	incf	___awdiv@quotient+1,f
  3477     061E                     l1654:
  3478     061E  087A               	movf	___awdiv@quotient+1,w
  3479     061F  00F3               	movwf	?___awdiv+1
  3480     0620  0879               	movf	___awdiv@quotient,w
  3481     0621  00F2               	movwf	?___awdiv
  3482     0622                     l479:
  3483     0622  0008               	return
  3484     0623                     __end_of___awdiv:
  3485                           
  3486                           	psect	text11
  3487     07A2                     __ptext11:	
  3488 ;; *************** function _Lcd_Write_String *****************
  3489 ;; Defined at:
  3490 ;;		line 66 in file "C:/Users/Bryan Ortiz/Desktop/Digital2/LAB4/LAB4D2.X/LCD8B.c"
  3491 ;; Parameters:    Size  Location     Type
  3492 ;;  a               1    wreg     PTR unsigned char 
  3493 ;;		 -> STR_1(4), 
  3494 ;; Auto vars:     Size  Location     Type
  3495 ;;  a               1    7[COMMON] PTR unsigned char 
  3496 ;;		 -> STR_1(4), 
  3497 ;;  i               2    5[COMMON] int 
  3498 ;; Return value:  Size  Location     Type
  3499 ;;                  1    wreg      void 
  3500 ;; Registers used:
  3501 ;;		wreg, fsr0l, fsr0h, status,2, status,0, pclath, cstack
  3502 ;; Tracked objects:
  3503 ;;		On entry : 0/0
  3504 ;;		On exit  : 0/0
  3505 ;;		Unchanged: 0/0
  3506 ;; Data sizes:     COMMON   BANK0   BANK1   BANK3   BANK2
  3507 ;;      Params:         0       0       0       0       0
  3508 ;;      Locals:         3       0       0       0       0
  3509 ;;      Temps:          0       0       0       0       0
  3510 ;;      Totals:         3       0       0       0       0
  3511 ;;Total ram usage:        3 bytes
  3512 ;; Hardware stack levels used: 1
  3513 ;; Hardware stack levels required when called: 3
  3514 ;; This function calls:
  3515 ;;		_Lcd_Write_Char
  3516 ;; This function is called by:
  3517 ;;		_main
  3518 ;; This function uses a non-reentrant model
  3519 ;;
  3520                           
  3521     07A2                     _Lcd_Write_String:	
  3522                           ;psect for function _Lcd_Write_String
  3523                           
  3524                           
  3525                           ;incstack = 0
  3526                           ; Regs used in _Lcd_Write_String: [wreg-fsr0h+status,2+status,0+pclath+cstack]
  3527                           ;Lcd_Write_String@a stored from wreg
  3528     07A2  00F7               	movwf	Lcd_Write_String@a
  3529     07A3                     l1606:
  3530                           
  3531                           ;C:/Users/Bryan Ortiz/Desktop/Digital2/LAB4/LAB4D2.X/LCD8B.c: 67:     int i;;C:/Users/Br
      +                          yan Ortiz/Desktop/Digital2/LAB4/LAB4D2.X/LCD8B.c: 68:     for (i = 0; a[i] != '\0'; i++)
  3532     07A3  01F5               	clrf	Lcd_Write_String@i
  3533     07A4  01F6               	clrf	Lcd_Write_String@i+1
  3534     07A5  2FB9               	goto	l1612
  3535     07A6                     l1608:
  3536                           
  3537                           ;C:/Users/Bryan Ortiz/Desktop/Digital2/LAB4/LAB4D2.X/LCD8B.c: 69:         Lcd_Write_Char
      +                          (a[i]);
  3538     07A6  0875               	movf	Lcd_Write_String@i,w
  3539     07A7  0777               	addwf	Lcd_Write_String@a,w
  3540     07A8  0084               	movwf	4
  3541     07A9  120A  158A  2000  120A  118A  	fcall	stringdir
  3542     07AE  120A  118A  27E7  120A  118A  	fcall	_Lcd_Write_Char
  3543     07B3                     l1610:
  3544     07B3  3001               	movlw	1
  3545     07B4  07F5               	addwf	Lcd_Write_String@i,f
  3546     07B5  1803               	skipnc
  3547     07B6  0AF6               	incf	Lcd_Write_String@i+1,f
  3548     07B7  3000               	movlw	0
  3549     07B8  07F6               	addwf	Lcd_Write_String@i+1,f
  3550     07B9                     l1612:
  3551     07B9  0875               	movf	Lcd_Write_String@i,w
  3552     07BA  0777               	addwf	Lcd_Write_String@a,w
  3553     07BB  0084               	movwf	4
  3554     07BC  120A  158A  2000  120A  118A  	fcall	stringdir
  3555     07C1  3A00               	xorlw	0
  3556     07C2  1D03               	skipz
  3557     07C3  2FC5               	goto	u781
  3558     07C4  2FC6               	goto	u780
  3559     07C5                     u781:
  3560     07C5  2FA6               	goto	l1608
  3561     07C6                     u780:
  3562     07C6                     l234:
  3563     07C6  0008               	return
  3564     07C7                     __end_of_Lcd_Write_String:
  3565                           
  3566                           	psect	text12
  3567     07E7                     __ptext12:	
  3568 ;; *************** function _Lcd_Write_Char *****************
  3569 ;; Defined at:
  3570 ;;		line 58 in file "C:/Users/Bryan Ortiz/Desktop/Digital2/LAB4/LAB4D2.X/LCD8B.c"
  3571 ;; Parameters:    Size  Location     Type
  3572 ;;  a               1    wreg     unsigned char 
  3573 ;; Auto vars:     Size  Location     Type
  3574 ;;  a               1    4[COMMON] unsigned char 
  3575 ;; Return value:  Size  Location     Type
  3576 ;;                  1    wreg      void 
  3577 ;; Registers used:
  3578 ;;		wreg, status,2, status,0, pclath, cstack
  3579 ;; Tracked objects:
  3580 ;;		On entry : 0/0
  3581 ;;		On exit  : 0/0
  3582 ;;		Unchanged: 0/0
  3583 ;; Data sizes:     COMMON   BANK0   BANK1   BANK3   BANK2
  3584 ;;      Params:         0       0       0       0       0
  3585 ;;      Locals:         1       0       0       0       0
  3586 ;;      Temps:          1       0       0       0       0
  3587 ;;      Totals:         2       0       0       0       0
  3588 ;;Total ram usage:        2 bytes
  3589 ;; Hardware stack levels used: 1
  3590 ;; Hardware stack levels required when called: 2
  3591 ;; This function calls:
  3592 ;;		_Lcd_Port
  3593 ;; This function is called by:
  3594 ;;		_main
  3595 ;;		_Lcd_Write_String
  3596 ;; This function uses a non-reentrant model
  3597 ;;
  3598                           
  3599     07E7                     _Lcd_Write_Char:	
  3600                           ;psect for function _Lcd_Write_Char
  3601                           
  3602                           
  3603                           ;incstack = 0
  3604                           ; Regs used in _Lcd_Write_Char: [wreg+status,2+status,0+pclath+cstack]
  3605                           ;Lcd_Write_Char@a stored from wreg
  3606     07E7  00F4               	movwf	Lcd_Write_Char@a
  3607     07E8                     l1502:
  3608                           
  3609                           ;C:/Users/Bryan Ortiz/Desktop/Digital2/LAB4/LAB4D2.X/LCD8B.c: 59:     PORTEbits.RE1 = 1;
  3610     07E8  1283               	bcf	3,5	;RP0=0, select bank0
  3611     07E9  1303               	bcf	3,6	;RP1=0, select bank0
  3612     07EA  1489               	bsf	9,1	;volatile
  3613     07EB                     l1504:
  3614                           
  3615                           ;C:/Users/Bryan Ortiz/Desktop/Digital2/LAB4/LAB4D2.X/LCD8B.c: 60:     Lcd_Port(a);
  3616     07EB  0874               	movf	Lcd_Write_Char@a,w
  3617     07EC  120A  158A  2784  120A  118A  	fcall	_Lcd_Port
  3618     07F1                     l1506:
  3619                           
  3620                           ;C:/Users/Bryan Ortiz/Desktop/Digital2/LAB4/LAB4D2.X/LCD8B.c: 61:     RE2 = 1;
  3621     07F1  1283               	bcf	3,5	;RP0=0, select bank0
  3622     07F2  1303               	bcf	3,6	;RP1=0, select bank0
  3623     07F3  1509               	bsf	9,2	;volatile
  3624     07F4                     l1508:
  3625                           
  3626                           ;C:/Users/Bryan Ortiz/Desktop/Digital2/LAB4/LAB4D2.X/LCD8B.c: 62:     _delay((unsigned l
      +                          ong)((40)*(8000000/4000000.0)));
  3627     07F4  301A               	movlw	26
  3628     07F5  00F3               	movwf	??_Lcd_Write_Char
  3629     07F6                     u1377:
  3630     07F6  0BF3               	decfsz	??_Lcd_Write_Char,f
  3631     07F7  2FF6               	goto	u1377
  3632     07F8  0000               	nop
  3633     07F9                     l1510:
  3634                           
  3635                           ;C:/Users/Bryan Ortiz/Desktop/Digital2/LAB4/LAB4D2.X/LCD8B.c: 63:     RE2 = 0;
  3636     07F9  1283               	bcf	3,5	;RP0=0, select bank0
  3637     07FA  1303               	bcf	3,6	;RP1=0, select bank0
  3638     07FB  1109               	bcf	9,2	;volatile
  3639     07FC                     l228:
  3640     07FC  0008               	return
  3641     07FD                     __end_of_Lcd_Write_Char:
  3642                           
  3643                           	psect	text13
  3644     07C7                     __ptext13:	
  3645 ;; *************** function _Lcd_Set_Cursor *****************
  3646 ;; Defined at:
  3647 ;;		line 30 in file "C:/Users/Bryan Ortiz/Desktop/Digital2/LAB4/LAB4D2.X/LCD8B.c"
  3648 ;; Parameters:    Size  Location     Type
  3649 ;;  a               1    wreg     unsigned char 
  3650 ;;  b               1    6[COMMON] unsigned char 
  3651 ;; Auto vars:     Size  Location     Type
  3652 ;;  a               1    7[COMMON] unsigned char 
  3653 ;;  temp            1    8[COMMON] unsigned char 
  3654 ;;  y               1    0        unsigned char 
  3655 ;;  z               1    0        unsigned char 
  3656 ;; Return value:  Size  Location     Type
  3657 ;;                  1    wreg      void 
  3658 ;; Registers used:
  3659 ;;		wreg, status,2, status,0, pclath, cstack
  3660 ;; Tracked objects:
  3661 ;;		On entry : 0/0
  3662 ;;		On exit  : 0/0
  3663 ;;		Unchanged: 0/0
  3664 ;; Data sizes:     COMMON   BANK0   BANK1   BANK3   BANK2
  3665 ;;      Params:         1       0       0       0       0
  3666 ;;      Locals:         2       0       0       0       0
  3667 ;;      Temps:          0       0       0       0       0
  3668 ;;      Totals:         3       0       0       0       0
  3669 ;;Total ram usage:        3 bytes
  3670 ;; Hardware stack levels used: 1
  3671 ;; Hardware stack levels required when called: 3
  3672 ;; This function calls:
  3673 ;;		_Lcd_Cmd
  3674 ;; This function is called by:
  3675 ;;		_main
  3676 ;; This function uses a non-reentrant model
  3677 ;;
  3678                           
  3679     07C7                     _Lcd_Set_Cursor:	
  3680                           ;psect for function _Lcd_Set_Cursor
  3681                           
  3682                           
  3683                           ;incstack = 0
  3684                           ; Regs used in _Lcd_Set_Cursor: [wreg+status,2+status,0+pclath+cstack]
  3685                           ;Lcd_Set_Cursor@a stored from wreg
  3686     07C7  00F7               	movwf	Lcd_Set_Cursor@a
  3687     07C8                     l1594:
  3688                           
  3689                           ;C:/Users/Bryan Ortiz/Desktop/Digital2/LAB4/LAB4D2.X/LCD8B.c: 31:     char temp, z, y;;C
      +                          :/Users/Bryan Ortiz/Desktop/Digital2/LAB4/LAB4D2.X/LCD8B.c: 32:     if (a == 1) {
  3690     07C8  0377               	decf	Lcd_Set_Cursor@a,w
  3691     07C9  1D03               	btfss	3,2
  3692     07CA  2FCC               	goto	u761
  3693     07CB  2FCD               	goto	u760
  3694     07CC                     u761:
  3695     07CC  2FD7               	goto	l1600
  3696     07CD                     u760:
  3697     07CD                     l1596:
  3698                           
  3699                           ;C:/Users/Bryan Ortiz/Desktop/Digital2/LAB4/LAB4D2.X/LCD8B.c: 33:         temp = 0x80 + 
      +                          b - 1;
  3700     07CD  0876               	movf	Lcd_Set_Cursor@b,w
  3701     07CE  3E7F               	addlw	127
  3702     07CF  00F8               	movwf	Lcd_Set_Cursor@temp
  3703     07D0                     l1598:
  3704                           
  3705                           ;C:/Users/Bryan Ortiz/Desktop/Digital2/LAB4/LAB4D2.X/LCD8B.c: 34:         Lcd_Cmd(temp);
  3706     07D0  0878               	movf	Lcd_Set_Cursor@temp,w
  3707     07D1  120A  158A  27E6  120A  118A  	fcall	_Lcd_Cmd
  3708                           
  3709                           ;C:/Users/Bryan Ortiz/Desktop/Digital2/LAB4/LAB4D2.X/LCD8B.c: 35:     } else if (a == 2)
      +                           {
  3710     07D6  2FE6               	goto	l222
  3711     07D7                     l1600:
  3712     07D7  3002               	movlw	2
  3713     07D8  0677               	xorwf	Lcd_Set_Cursor@a,w
  3714     07D9  1D03               	btfss	3,2
  3715     07DA  2FDC               	goto	u771
  3716     07DB  2FDD               	goto	u770
  3717     07DC                     u771:
  3718     07DC  2FE6               	goto	l222
  3719     07DD                     u770:
  3720     07DD                     l1602:
  3721                           
  3722                           ;C:/Users/Bryan Ortiz/Desktop/Digital2/LAB4/LAB4D2.X/LCD8B.c: 36:         temp = 0xC0 + 
      +                          b - 1;
  3723     07DD  0876               	movf	Lcd_Set_Cursor@b,w
  3724     07DE  3EBF               	addlw	191
  3725     07DF  00F8               	movwf	Lcd_Set_Cursor@temp
  3726     07E0                     l1604:
  3727                           
  3728                           ;C:/Users/Bryan Ortiz/Desktop/Digital2/LAB4/LAB4D2.X/LCD8B.c: 37:         Lcd_Cmd(temp);
  3729     07E0  0878               	movf	Lcd_Set_Cursor@temp,w
  3730     07E1  120A  158A  27E6  120A  118A  	fcall	_Lcd_Cmd
  3731     07E6                     l222:
  3732     07E6  0008               	return
  3733     07E7                     __end_of_Lcd_Set_Cursor:
  3734                           
  3735                           	psect	text14
  3736     0FC4                     __ptext14:	
  3737 ;; *************** function _Lcd_Clear *****************
  3738 ;; Defined at:
  3739 ;;		line 25 in file "C:/Users/Bryan Ortiz/Desktop/Digital2/LAB4/LAB4D2.X/LCD8B.c"
  3740 ;; Parameters:    Size  Location     Type
  3741 ;;		None
  3742 ;; Auto vars:     Size  Location     Type
  3743 ;;		None
  3744 ;; Return value:  Size  Location     Type
  3745 ;;                  1    wreg      void 
  3746 ;; Registers used:
  3747 ;;		wreg, status,2, status,0, pclath, cstack
  3748 ;; Tracked objects:
  3749 ;;		On entry : 0/0
  3750 ;;		On exit  : 0/0
  3751 ;;		Unchanged: 0/0
  3752 ;; Data sizes:     COMMON   BANK0   BANK1   BANK3   BANK2
  3753 ;;      Params:         0       0       0       0       0
  3754 ;;      Locals:         0       0       0       0       0
  3755 ;;      Temps:          0       0       0       0       0
  3756 ;;      Totals:         0       0       0       0       0
  3757 ;;Total ram usage:        0 bytes
  3758 ;; Hardware stack levels used: 1
  3759 ;; Hardware stack levels required when called: 3
  3760 ;; This function calls:
  3761 ;;		_Lcd_Cmd
  3762 ;; This function is called by:
  3763 ;;		_main
  3764 ;; This function uses a non-reentrant model
  3765 ;;
  3766                           
  3767     0FC4                     _Lcd_Clear:	
  3768                           ;psect for function _Lcd_Clear
  3769                           
  3770     0FC4                     l1588:	
  3771                           ;incstack = 0
  3772                           ; Regs used in _Lcd_Clear: [wreg+status,2+status,0+pclath+cstack]
  3773                           
  3774                           
  3775                           ;C:/Users/Bryan Ortiz/Desktop/Digital2/LAB4/LAB4D2.X/LCD8B.c: 26:     Lcd_Cmd(0);
  3776     0FC4  3000               	movlw	0
  3777     0FC5  120A  158A  27E6  120A  158A  	fcall	_Lcd_Cmd
  3778                           
  3779                           ;C:/Users/Bryan Ortiz/Desktop/Digital2/LAB4/LAB4D2.X/LCD8B.c: 27:     Lcd_Cmd(1);
  3780     0FCA  3001               	movlw	1
  3781     0FCB  120A  158A  27E6  120A  158A  	fcall	_Lcd_Cmd
  3782     0FD0                     l216:
  3783     0FD0  0008               	return
  3784     0FD1                     __end_of_Lcd_Clear:
  3785                           
  3786                           	psect	text15
  3787     0FE6                     __ptext15:	
  3788 ;; *************** function _Lcd_Cmd *****************
  3789 ;; Defined at:
  3790 ;;		line 17 in file "C:/Users/Bryan Ortiz/Desktop/Digital2/LAB4/LAB4D2.X/LCD8B.c"
  3791 ;; Parameters:    Size  Location     Type
  3792 ;;  a               1    wreg     unsigned char 
  3793 ;; Auto vars:     Size  Location     Type
  3794 ;;  a               1    5[COMMON] unsigned char 
  3795 ;; Return value:  Size  Location     Type
  3796 ;;                  1    wreg      void 
  3797 ;; Registers used:
  3798 ;;		wreg, status,2, status,0, pclath, cstack
  3799 ;; Tracked objects:
  3800 ;;		On entry : 0/0
  3801 ;;		On exit  : 0/0
  3802 ;;		Unchanged: 0/0
  3803 ;; Data sizes:     COMMON   BANK0   BANK1   BANK3   BANK2
  3804 ;;      Params:         0       0       0       0       0
  3805 ;;      Locals:         1       0       0       0       0
  3806 ;;      Temps:          2       0       0       0       0
  3807 ;;      Totals:         3       0       0       0       0
  3808 ;;Total ram usage:        3 bytes
  3809 ;; Hardware stack levels used: 1
  3810 ;; Hardware stack levels required when called: 2
  3811 ;; This function calls:
  3812 ;;		_Lcd_Port
  3813 ;; This function is called by:
  3814 ;;		_Lcd_Clear
  3815 ;;		_Lcd_Set_Cursor
  3816 ;;		_Lcd_Init
  3817 ;;		_Lcd_Shift_Right
  3818 ;;		_Lcd_Shift_Left
  3819 ;; This function uses a non-reentrant model
  3820 ;;
  3821                           
  3822     0FE6                     _Lcd_Cmd:	
  3823                           ;psect for function _Lcd_Cmd
  3824                           
  3825                           
  3826                           ;incstack = 0
  3827                           ; Regs used in _Lcd_Cmd: [wreg+status,2+status,0+pclath+cstack]
  3828                           ;Lcd_Cmd@a stored from wreg
  3829     0FE6  00F5               	movwf	Lcd_Cmd@a
  3830     0FE7                     l1444:
  3831                           
  3832                           ;C:/Users/Bryan Ortiz/Desktop/Digital2/LAB4/LAB4D2.X/LCD8B.c: 18:     PORTEbits.RE1 = 0;
  3833     0FE7  1283               	bcf	3,5	;RP0=0, select bank0
  3834     0FE8  1303               	bcf	3,6	;RP1=0, select bank0
  3835     0FE9  1089               	bcf	9,1	;volatile
  3836     0FEA                     l1446:
  3837                           
  3838                           ;C:/Users/Bryan Ortiz/Desktop/Digital2/LAB4/LAB4D2.X/LCD8B.c: 19:     Lcd_Port(a);
  3839     0FEA  0875               	movf	Lcd_Cmd@a,w
  3840     0FEB  120A  158A  2784  120A  158A  	fcall	_Lcd_Port
  3841     0FF0                     l1448:
  3842                           
  3843                           ;C:/Users/Bryan Ortiz/Desktop/Digital2/LAB4/LAB4D2.X/LCD8B.c: 20:     RE2 = 1;
  3844     0FF0  1283               	bcf	3,5	;RP0=0, select bank0
  3845     0FF1  1303               	bcf	3,6	;RP1=0, select bank0
  3846     0FF2  1509               	bsf	9,2	;volatile
  3847     0FF3                     l1450:
  3848                           
  3849                           ;C:/Users/Bryan Ortiz/Desktop/Digital2/LAB4/LAB4D2.X/LCD8B.c: 21:     _delay((unsigned l
      +                          ong)((4)*(8000000/4000.0)));
  3850     0FF3  300B               	movlw	11
  3851     0FF4  00F4               	movwf	??_Lcd_Cmd+1
  3852     0FF5  3062               	movlw	98
  3853     0FF6  00F3               	movwf	??_Lcd_Cmd
  3854     0FF7                     u1387:
  3855     0FF7  0BF3               	decfsz	??_Lcd_Cmd,f
  3856     0FF8  2FF7               	goto	u1387
  3857     0FF9  0BF4               	decfsz	??_Lcd_Cmd+1,f
  3858     0FFA  2FF7               	goto	u1387
  3859     0FFB  0000               	nop
  3860     0FFC                     l1452:
  3861                           
  3862                           ;C:/Users/Bryan Ortiz/Desktop/Digital2/LAB4/LAB4D2.X/LCD8B.c: 22:     RE2 = 0;
  3863     0FFC  1283               	bcf	3,5	;RP0=0, select bank0
  3864     0FFD  1303               	bcf	3,6	;RP1=0, select bank0
  3865     0FFE  1109               	bcf	9,2	;volatile
  3866     0FFF                     l213:
  3867     0FFF  0008               	return
  3868     1000                     __end_of_Lcd_Cmd:
  3869                           
  3870                           	psect	text16
  3871     0F84                     __ptext16:	
  3872 ;; *************** function _Lcd_Port *****************
  3873 ;; Defined at:
  3874 ;;		line 13 in file "C:/Users/Bryan Ortiz/Desktop/Digital2/LAB4/LAB4D2.X/LCD8B.c"
  3875 ;; Parameters:    Size  Location     Type
  3876 ;;  a               1    wreg     unsigned char 
  3877 ;; Auto vars:     Size  Location     Type
  3878 ;;  a               1    2[COMMON] unsigned char 
  3879 ;; Return value:  Size  Location     Type
  3880 ;;                  1    wreg      void 
  3881 ;; Registers used:
  3882 ;;		wreg
  3883 ;; Tracked objects:
  3884 ;;		On entry : 0/0
  3885 ;;		On exit  : 0/0
  3886 ;;		Unchanged: 0/0
  3887 ;; Data sizes:     COMMON   BANK0   BANK1   BANK3   BANK2
  3888 ;;      Params:         0       0       0       0       0
  3889 ;;      Locals:         1       0       0       0       0
  3890 ;;      Temps:          0       0       0       0       0
  3891 ;;      Totals:         1       0       0       0       0
  3892 ;;Total ram usage:        1 bytes
  3893 ;; Hardware stack levels used: 1
  3894 ;; Hardware stack levels required when called: 1
  3895 ;; This function calls:
  3896 ;;		Nothing
  3897 ;; This function is called by:
  3898 ;;		_Lcd_Cmd
  3899 ;;		_Lcd_Init
  3900 ;;		_Lcd_Write_Char
  3901 ;; This function uses a non-reentrant model
  3902 ;;
  3903                           
  3904     0F84                     _Lcd_Port:	
  3905                           ;psect for function _Lcd_Port
  3906                           
  3907                           
  3908                           ;incstack = 0
  3909                           ; Regs used in _Lcd_Port: [wreg]
  3910                           ;Lcd_Port@a stored from wreg
  3911     0F84  00F2               	movwf	Lcd_Port@a
  3912     0F85                     l1438:
  3913                           
  3914                           ;C:/Users/Bryan Ortiz/Desktop/Digital2/LAB4/LAB4D2.X/LCD8B.c: 14:     PORTD = a;
  3915     0F85  0872               	movf	Lcd_Port@a,w
  3916     0F86  1283               	bcf	3,5	;RP0=0, select bank0
  3917     0F87  1303               	bcf	3,6	;RP1=0, select bank0
  3918     0F88  0088               	movwf	8	;volatile
  3919     0F89                     l210:
  3920     0F89  0008               	return
  3921     0F8A                     __end_of_Lcd_Port:
  3922                           
  3923                           	psect	text17
  3924     0F92                     __ptext17:	
  3925 ;; *************** function _I2C_Master_RepeatedStart *****************
  3926 ;; Defined at:
  3927 ;;		line 47 in file "C:/Users/Bryan Ortiz/Desktop/Digital2/LAB4/LAB4D2.X/I2C.c"
  3928 ;; Parameters:    Size  Location     Type
  3929 ;;		None
  3930 ;; Auto vars:     Size  Location     Type
  3931 ;;		None
  3932 ;; Return value:  Size  Location     Type
  3933 ;;                  1    wreg      void 
  3934 ;; Registers used:
  3935 ;;		wreg, status,2, status,0, pclath, cstack
  3936 ;; Tracked objects:
  3937 ;;		On entry : 0/0
  3938 ;;		On exit  : 0/0
  3939 ;;		Unchanged: 0/0
  3940 ;; Data sizes:     COMMON   BANK0   BANK1   BANK3   BANK2
  3941 ;;      Params:         0       0       0       0       0
  3942 ;;      Locals:         0       0       0       0       0
  3943 ;;      Temps:          0       0       0       0       0
  3944 ;;      Totals:         0       0       0       0       0
  3945 ;;Total ram usage:        0 bytes
  3946 ;; Hardware stack levels used: 1
  3947 ;; Hardware stack levels required when called: 2
  3948 ;; This function calls:
  3949 ;;		_I2C_Master_Wait
  3950 ;; This function is called by:
  3951 ;;		_main
  3952 ;; This function uses a non-reentrant model
  3953 ;;
  3954                           
  3955     0F92                     _I2C_Master_RepeatedStart:	
  3956                           ;psect for function _I2C_Master_RepeatedStart
  3957                           
  3958     0F92                     l1522:	
  3959                           ;incstack = 0
  3960                           ; Regs used in _I2C_Master_RepeatedStart: [wreg+status,2+status,0+pclath+cstack]
  3961                           
  3962                           
  3963                           ;C:/Users/Bryan Ortiz/Desktop/Digital2/LAB4/LAB4D2.X/I2C.c: 49:     I2C_Master_Wait();
  3964     0F92  120A  158A  27B7  120A  158A  	fcall	_I2C_Master_Wait
  3965     0F97                     l1524:
  3966                           
  3967                           ;C:/Users/Bryan Ortiz/Desktop/Digital2/LAB4/LAB4D2.X/I2C.c: 50:     SSPCON2bits.RSEN = 1
      +                          ;
  3968     0F97  1683               	bsf	3,5	;RP0=1, select bank1
  3969     0F98  1303               	bcf	3,6	;RP1=0, select bank1
  3970     0F99  1491               	bsf	17,1	;volatile
  3971     0F9A                     l41:
  3972     0F9A  0008               	return
  3973     0F9B                     __end_of_I2C_Master_RepeatedStart:
  3974                           
  3975                           	psect	text18
  3976     0774                     __ptext18:	
  3977 ;; *************** function _I2C_Master_Read *****************
  3978 ;; Defined at:
  3979 ;;		line 74 in file "C:/Users/Bryan Ortiz/Desktop/Digital2/LAB4/LAB4D2.X/I2C.c"
  3980 ;; Parameters:    Size  Location     Type
  3981 ;;  a               2    2[COMMON] unsigned short 
  3982 ;; Auto vars:     Size  Location     Type
  3983 ;;  temp            2    6[COMMON] unsigned short 
  3984 ;; Return value:  Size  Location     Type
  3985 ;;                  2    2[COMMON] unsigned short 
  3986 ;; Registers used:
  3987 ;;		wreg, status,2, status,0, pclath, cstack
  3988 ;; Tracked objects:
  3989 ;;		On entry : 0/0
  3990 ;;		On exit  : 0/0
  3991 ;;		Unchanged: 0/0
  3992 ;; Data sizes:     COMMON   BANK0   BANK1   BANK3   BANK2
  3993 ;;      Params:         2       0       0       0       0
  3994 ;;      Locals:         2       0       0       0       0
  3995 ;;      Temps:          2       0       0       0       0
  3996 ;;      Totals:         6       0       0       0       0
  3997 ;;Total ram usage:        6 bytes
  3998 ;; Hardware stack levels used: 1
  3999 ;; Hardware stack levels required when called: 2
  4000 ;; This function calls:
  4001 ;;		_I2C_Master_Wait
  4002 ;; This function is called by:
  4003 ;;		_main
  4004 ;; This function uses a non-reentrant model
  4005 ;;
  4006                           
  4007     0774                     _I2C_Master_Read:	
  4008                           ;psect for function _I2C_Master_Read
  4009                           
  4010     0774                     l1526:	
  4011                           ;incstack = 0
  4012                           ; Regs used in _I2C_Master_Read: [wreg+status,2+status,0+pclath+cstack]
  4013                           
  4014                           
  4015                           ;C:/Users/Bryan Ortiz/Desktop/Digital2/LAB4/LAB4D2.X/I2C.c: 74: unsigned short I2C_Maste
      +                          r_Read(unsigned short a);C:/Users/Bryan Ortiz/Desktop/Digital2/LAB4/LAB4D2.X/I2C.c: 75: 
      +                          {;C:/Users/Bryan Ortiz/Desktop/Digital2/LAB4/LAB4D2.X/I2C.c: 76:     unsigned short temp
      +                          ;;C:/Users/Bryan Ortiz/Desktop/Digital2/LAB4/LAB4D2.X/I2C.c: 77:     I2C_Master_Wait();
  4016     0774  120A  158A  27B7  120A  118A  	fcall	_I2C_Master_Wait
  4017     0779                     l1528:
  4018                           
  4019                           ;C:/Users/Bryan Ortiz/Desktop/Digital2/LAB4/LAB4D2.X/I2C.c: 78:     SSPCON2bits.RCEN = 1
      +                          ;
  4020     0779  1683               	bsf	3,5	;RP0=1, select bank1
  4021     077A  1303               	bcf	3,6	;RP1=0, select bank1
  4022     077B  1591               	bsf	17,3	;volatile
  4023                           
  4024                           ;C:/Users/Bryan Ortiz/Desktop/Digital2/LAB4/LAB4D2.X/I2C.c: 79:     I2C_Master_Wait();
  4025     077C  120A  158A  27B7  120A  118A  	fcall	_I2C_Master_Wait
  4026     0781                     l1530:
  4027                           
  4028                           ;C:/Users/Bryan Ortiz/Desktop/Digital2/LAB4/LAB4D2.X/I2C.c: 80:     temp = SSPBUF;
  4029     0781  1283               	bcf	3,5	;RP0=0, select bank0
  4030     0782  1303               	bcf	3,6	;RP1=0, select bank0
  4031     0783  0813               	movf	19,w	;volatile
  4032     0784  00F4               	movwf	??_I2C_Master_Read
  4033     0785  01F5               	clrf	??_I2C_Master_Read+1
  4034     0786  0874               	movf	??_I2C_Master_Read,w
  4035     0787  00F6               	movwf	I2C_Master_Read@temp
  4036     0788  0875               	movf	??_I2C_Master_Read+1,w
  4037     0789  00F7               	movwf	I2C_Master_Read@temp+1
  4038     078A                     l1532:
  4039                           
  4040                           ;C:/Users/Bryan Ortiz/Desktop/Digital2/LAB4/LAB4D2.X/I2C.c: 81:     I2C_Master_Wait();
  4041     078A  120A  158A  27B7  120A  118A  	fcall	_I2C_Master_Wait
  4042     078F                     l1534:
  4043                           
  4044                           ;C:/Users/Bryan Ortiz/Desktop/Digital2/LAB4/LAB4D2.X/I2C.c: 82:     if(a == 1){
  4045     078F  0372               	decf	I2C_Master_Read@a,w
  4046     0790  0473               	iorwf	I2C_Master_Read@a+1,w
  4047     0791  1D03               	btfss	3,2
  4048     0792  2F94               	goto	u751
  4049     0793  2F95               	goto	u750
  4050     0794                     u751:
  4051     0794  2F99               	goto	l50
  4052     0795                     u750:
  4053     0795                     l1536:
  4054                           
  4055                           ;C:/Users/Bryan Ortiz/Desktop/Digital2/LAB4/LAB4D2.X/I2C.c: 83:         SSPCON2bits.ACKD
      +                          T = 0;
  4056     0795  1683               	bsf	3,5	;RP0=1, select bank1
  4057     0796  1303               	bcf	3,6	;RP1=0, select bank1
  4058     0797  1291               	bcf	17,5	;volatile
  4059                           
  4060                           ;C:/Users/Bryan Ortiz/Desktop/Digital2/LAB4/LAB4D2.X/I2C.c: 84:     }else{
  4061     0798  2F9C               	goto	l51
  4062     0799                     l50:
  4063                           
  4064                           ;C:/Users/Bryan Ortiz/Desktop/Digital2/LAB4/LAB4D2.X/I2C.c: 85:         SSPCON2bits.ACKD
      +                          T = 1;
  4065     0799  1683               	bsf	3,5	;RP0=1, select bank1
  4066     079A  1303               	bcf	3,6	;RP1=0, select bank1
  4067     079B  1691               	bsf	17,5	;volatile
  4068     079C                     l51:	
  4069                           ;C:/Users/Bryan Ortiz/Desktop/Digital2/LAB4/LAB4D2.X/I2C.c: 86:     }
  4070                           
  4071                           
  4072                           ;C:/Users/Bryan Ortiz/Desktop/Digital2/LAB4/LAB4D2.X/I2C.c: 87:     SSPCON2bits.ACKEN = 
      +                          1;
  4073     079C  1611               	bsf	17,4	;volatile
  4074     079D                     l1538:
  4075                           
  4076                           ;C:/Users/Bryan Ortiz/Desktop/Digital2/LAB4/LAB4D2.X/I2C.c: 88:     return temp;
  4077     079D  0877               	movf	I2C_Master_Read@temp+1,w
  4078     079E  00F3               	movwf	?_I2C_Master_Read+1
  4079     079F  0876               	movf	I2C_Master_Read@temp,w
  4080     07A0  00F2               	movwf	?_I2C_Master_Read
  4081     07A1                     l52:
  4082     07A1  0008               	return
  4083     07A2                     __end_of_I2C_Master_Read:
  4084                           
  4085                           	psect	text19
  4086     0FB7                     __ptext19:	
  4087 ;; *************** function _I2C_Master_Wait *****************
  4088 ;; Defined at:
  4089 ;;		line 32 in file "C:/Users/Bryan Ortiz/Desktop/Digital2/LAB4/LAB4D2.X/I2C.c"
  4090 ;; Parameters:    Size  Location     Type
  4091 ;;		None
  4092 ;; Auto vars:     Size  Location     Type
  4093 ;;		None
  4094 ;; Return value:  Size  Location     Type
  4095 ;;                  1    wreg      void 
  4096 ;; Registers used:
  4097 ;;		wreg, status,2
  4098 ;; Tracked objects:
  4099 ;;		On entry : 0/0
  4100 ;;		On exit  : 0/0
  4101 ;;		Unchanged: 0/0
  4102 ;; Data sizes:     COMMON   BANK0   BANK1   BANK3   BANK2
  4103 ;;      Params:         0       0       0       0       0
  4104 ;;      Locals:         0       0       0       0       0
  4105 ;;      Temps:          0       0       0       0       0
  4106 ;;      Totals:         0       0       0       0       0
  4107 ;;Total ram usage:        0 bytes
  4108 ;; Hardware stack levels used: 1
  4109 ;; Hardware stack levels required when called: 1
  4110 ;; This function calls:
  4111 ;;		Nothing
  4112 ;; This function is called by:
  4113 ;;		_I2C_Master_Start
  4114 ;;		_I2C_Master_RepeatedStart
  4115 ;;		_I2C_Master_Stop
  4116 ;;		_I2C_Master_Write
  4117 ;;		_I2C_Master_Read
  4118 ;; This function uses a non-reentrant model
  4119 ;;
  4120                           
  4121     0FB7                     _I2C_Master_Wait:	
  4122                           ;psect for function _I2C_Master_Wait
  4123                           
  4124     0FB7                     l1440:	
  4125                           ;incstack = 0
  4126                           ; Regs used in _I2C_Master_Wait: [wreg+status,2]
  4127                           
  4128     0FB7                     l32:	
  4129                           ;C:/Users/Bryan Ortiz/Desktop/Digital2/LAB4/LAB4D2.X/I2C.c: 34:     while ((SSPSTAT & 0x
      +                          04) || (SSPCON2 & 0x1F));
  4130                           
  4131     0FB7  1683               	bsf	3,5	;RP0=1, select bank1
  4132     0FB8  1303               	bcf	3,6	;RP1=0, select bank1
  4133     0FB9  1914               	btfsc	20,2	;volatile
  4134     0FBA  2FBC               	goto	u651
  4135     0FBB  2FBD               	goto	u650
  4136     0FBC                     u651:
  4137     0FBC  2FB7               	goto	l32
  4138     0FBD                     u650:
  4139     0FBD                     l1442:
  4140     0FBD  0811               	movf	17,w	;volatile
  4141     0FBE  391F               	andlw	31
  4142     0FBF  1D03               	btfss	3,2
  4143     0FC0  2FC2               	goto	u661
  4144     0FC1  2FC3               	goto	u660
  4145     0FC2                     u661:
  4146     0FC2  2FB7               	goto	l32
  4147     0FC3                     u660:
  4148     0FC3                     l35:
  4149     0FC3  0008               	return
  4150     0FC4                     __end_of_I2C_Master_Wait:
  4151                           
  4152                           	psect	text20
  4153     0FD1                     __ptext20:	
  4154 ;; *************** function _isr *****************
  4155 ;; Defined at:
  4156 ;;		line 54 in file "C:/Users/Bryan Ortiz/Desktop/Digital2/LAB4/LAB4D2.X/LAB4.c"
  4157 ;; Parameters:    Size  Location     Type
  4158 ;;		None
  4159 ;; Auto vars:     Size  Location     Type
  4160 ;;		None
  4161 ;; Return value:  Size  Location     Type
  4162 ;;                  1    wreg      void 
  4163 ;; Registers used:
  4164 ;;		None
  4165 ;; Tracked objects:
  4166 ;;		On entry : 0/0
  4167 ;;		On exit  : 0/0
  4168 ;;		Unchanged: 0/0
  4169 ;; Data sizes:     COMMON   BANK0   BANK1   BANK3   BANK2
  4170 ;;      Params:         0       0       0       0       0
  4171 ;;      Locals:         0       0       0       0       0
  4172 ;;      Temps:          2       0       0       0       0
  4173 ;;      Totals:         2       0       0       0       0
  4174 ;;Total ram usage:        2 bytes
  4175 ;; Hardware stack levels used: 1
  4176 ;; This function calls:
  4177 ;;		Nothing
  4178 ;; This function is called by:
  4179 ;;		Interrupt level 1
  4180 ;; This function uses a non-reentrant model
  4181 ;;
  4182                           
  4183     0FD1                     _isr:	
  4184                           ;psect for function _isr
  4185                           
  4186     0FD1                     i1l1696:
  4187                           
  4188                           ;C:/Users/Bryan Ortiz/Desktop/Digital2/LAB4/LAB4D2.X/LAB4.c: 55:     if(INTCONbits.RBIF)
      +                          {
  4189     0FD1  1C0B               	btfss	11,0	;volatile
  4190     0FD2  2FD4               	goto	u98_21
  4191     0FD3  2FD5               	goto	u98_20
  4192     0FD4                     u98_21:
  4193     0FD4  2FDF               	goto	i1l168
  4194     0FD5                     u98_20:
  4195     0FD5                     i1l1698:
  4196                           
  4197                           ;C:/Users/Bryan Ortiz/Desktop/Digital2/LAB4/LAB4D2.X/LAB4.c: 56:         if(PORTBbits.RB
      +                          0==0){
  4198     0FD5  1283               	bcf	3,5	;RP0=0, select bank0
  4199     0FD6  1303               	bcf	3,6	;RP1=0, select bank0
  4200     0FD7  1806               	btfsc	6,0	;volatile
  4201     0FD8  2FDA               	goto	u99_21
  4202     0FD9  2FDB               	goto	u99_20
  4203     0FDA                     u99_21:
  4204     0FDA  2FDE               	goto	i1l167
  4205     0FDB                     u99_20:
  4206     0FDB                     i1l1700:
  4207                           
  4208                           ;C:/Users/Bryan Ortiz/Desktop/Digital2/LAB4/LAB4D2.X/LAB4.c: 57:             escritura =
      +                           1;
  4209     0FDB  01C1               	clrf	_escritura
  4210     0FDC  0AC1               	incf	_escritura,f
  4211                           
  4212                           ;C:/Users/Bryan Ortiz/Desktop/Digital2/LAB4/LAB4D2.X/LAB4.c: 58:             PORTEbits.R
      +                          E0=1;
  4213     0FDD  1409               	bsf	9,0	;volatile
  4214     0FDE                     i1l167:	
  4215                           ;C:/Users/Bryan Ortiz/Desktop/Digital2/LAB4/LAB4D2.X/LAB4.c: 59:         }
  4216                           
  4217                           
  4218                           ;C:/Users/Bryan Ortiz/Desktop/Digital2/LAB4/LAB4D2.X/LAB4.c: 60:         INTCONbits.RBIF
      +                           = 0;
  4219     0FDE  100B               	bcf	11,0	;volatile
  4220     0FDF                     i1l168:
  4221     0FDF  0871               	movf	??_isr+1,w
  4222     0FE0  008A               	movwf	10
  4223     0FE1  0E70               	swapf	??_isr,w
  4224     0FE2  0083               	movwf	3
  4225     0FE3  0EFE               	swapf	btemp,f
  4226     0FE4  0E7E               	swapf	btemp,w
  4227     0FE5  0009               	retfie
  4228     0FE6                     __end_of_isr:
  4229     007E                     btemp	set	126	;btemp
  4230     007E                     wtemp0	set	126
  4231                           
  4232                           	psect	intentry
  4233     0004                     __pintentry:	
  4234                           ;incstack = 0
  4235                           ; Regs used in _isr: []
  4236                           
  4237     0004                     interrupt_function:
  4238     007E                     saved_w	set	btemp
  4239     0004  00FE               	movwf	btemp
  4240     0005  0E03               	swapf	3,w
  4241     0006  00F0               	movwf	??_isr
  4242     0007  080A               	movf	10,w
  4243     0008  00F1               	movwf	??_isr+1
  4244     0009  120A  158A  2FD1   	ljmp	_isr
  4245                           
  4246                           	psect	idloc
  4247                           
  4248                           ;Config register IDLOC0 @ 0x2000
  4249                           ;	unspecified, using default values
  4250     2000                     	org	8192
  4251     2000  3FFF               	dw	16383
  4252                           
  4253                           ;Config register IDLOC1 @ 0x2001
  4254                           ;	unspecified, using default values
  4255     2001                     	org	8193
  4256     2001  3FFF               	dw	16383
  4257                           
  4258                           ;Config register IDLOC2 @ 0x2002
  4259                           ;	unspecified, using default values
  4260     2002                     	org	8194
  4261     2002  3FFF               	dw	16383
  4262                           
  4263                           ;Config register IDLOC3 @ 0x2003
  4264                           ;	unspecified, using default values
  4265     2003                     	org	8195
  4266     2003  3FFF               	dw	16383
  4267                           
  4268                           	psect	config
  4269                           
  4270                           ;Config register CONFIG1 @ 0x2007
  4271                           ;	Oscillator Selection bits
  4272                           ;	FOSC = INTRC_NOCLKOUT, INTOSCIO oscillator: I/O function on RA6/OSC2/CLKOUT pin, I/O f
      +                          unction on RA7/OSC1/CLKIN
  4273                           ;	Watchdog Timer Enable bit
  4274                           ;	WDTE = OFF, WDT disabled and can be enabled by SWDTEN bit of the WDTCON register
  4275                           ;	Power-up Timer Enable bit
  4276                           ;	PWRTE = OFF, PWRT disabled
  4277                           ;	RE3/MCLR pin function select bit
  4278                           ;	MCLRE = OFF, RE3/MCLR pin function is digital input, MCLR internally tied to VDD
  4279                           ;	Code Protection bit
  4280                           ;	CP = OFF, Program memory code protection is disabled
  4281                           ;	Data Code Protection bit
  4282                           ;	CPD = OFF, Data memory code protection is disabled
  4283                           ;	Brown Out Reset Selection bits
  4284                           ;	BOREN = OFF, BOR disabled
  4285                           ;	Internal External Switchover bit
  4286                           ;	IESO = OFF, Internal/External Switchover mode is disabled
  4287                           ;	Fail-Safe Clock Monitor Enabled bit
  4288                           ;	FCMEN = OFF, Fail-Safe Clock Monitor is disabled
  4289                           ;	Low Voltage Programming Enable bit
  4290                           ;	LVP = OFF, RB3 pin has digital I/O, HV on MCLR must be used for programming
  4291                           ;	In-Circuit Debugger Mode bit
  4292                           ;	DEBUG = 0x1, unprogramme  4293     2007                     	org	8199
  4294     2007  20D4               	dw	8404
  4295                           
  4296                           ;Config register CONFIG2 @ 0x2008
  4297                           ;	Brown-out Reset Selection bit
  4298                           ;	BOR4V = BOR40V, Brown-out Reset set to 4.0V
  4299                           ;	Flash Program Memory Self Write Enable bits
  4300                           ;	WRT = OFF, Write protection off
  4301     2008                     	org	8200
  4302     2008  3FFF               	dw	16383

Data Sizes:
    Strings     4
    Constant    0
    Data        0
    BSS         22
    Persistent  0
    Stack       0

Auto Spaces:
    Space          Size  Autos    Used
    COMMON           14     12      12
    BANK0            80     31      53
    BANK1            80      0       0
    BANK3            96      0       0
    BANK2            96      0       0

Pointer List with Targets:

    Lcd_Write_String@a	PTR unsigned char  size(1) Largest target is 4
		 -> STR_1(CODE[4]), 


Critical Paths under _main in COMMON

    _main->___awmod
    _writeTime->_I2C_Master_Write
    _Lcd_Init->_Lcd_Cmd
    _I2C_Master_Init->___lldiv
    ___awmod->___awdiv
    _Lcd_Write_String->_Lcd_Write_Char
    _Lcd_Write_Char->_Lcd_Port
    _Lcd_Set_Cursor->_Lcd_Cmd
    _Lcd_Clear->_Lcd_Cmd
    _Lcd_Cmd->_Lcd_Port

Critical Paths under _isr in COMMON

    None.

Critical Paths under _main in BANK0

    _setup->_I2C_Master_Init
    _I2C_Master_Init->___lldiv

Critical Paths under _isr in BANK0

    None.

Critical Paths under _main in BANK1

    None.

Critical Paths under _isr in BANK1

    None.

Critical Paths under _main in BANK3

    None.

Critical Paths under _isr in BANK3

    None.

Critical Paths under _main in BANK2

    None.

Critical Paths under _isr in BANK2

    None.

Call Graph Tables:

 ---------------------------------------------------------------------------------
 (Depth) Function   	        Calls       Base Space   Used Autos Params    Refs
 ---------------------------------------------------------------------------------
 (0) _main                                                18    18      0    9245
                                             13 BANK0     18    18      0
                    _I2C_Master_Read
           _I2C_Master_RepeatedStart
                   _I2C_Master_Start
                    _I2C_Master_Stop
                   _I2C_Master_Write
                          _Lcd_Clear
                     _Lcd_Set_Cursor
                     _Lcd_Write_Char
                   _Lcd_Write_String
                            ___awdiv
                            ___awmod
                              _setup
                          _writeTime
 ---------------------------------------------------------------------------------
 (1) _writeTime                                            4     3      1    2194
                                              4 COMMON     4     3      1
                   _I2C_Master_Start
                    _I2C_Master_Stop
                   _I2C_Master_Write
 ---------------------------------------------------------------------------------
 (2) _I2C_Master_Write                                     2     0      2    1694
                                              2 COMMON     2     0      2
                    _I2C_Master_Wait
 ---------------------------------------------------------------------------------
 (2) _I2C_Master_Stop                                      0     0      0       0
                    _I2C_Master_Wait
 ---------------------------------------------------------------------------------
 (2) _I2C_Master_Start                                     0     0      0       0
                    _I2C_Master_Wait
 ---------------------------------------------------------------------------------
 (1) _setup                                                0     0      0     478
                    _I2C_Master_Init
                           _Lcd_Init
 ---------------------------------------------------------------------------------
 (2) _Lcd_Init                                             2     2      0      66
                                              6 COMMON     2     2      0
                            _Lcd_Cmd
                           _Lcd_Port
 ---------------------------------------------------------------------------------
 (2) _I2C_Master_Init                                      8     4      4     412
                                              5 BANK0      8     4      4
                            ___lldiv
 ---------------------------------------------------------------------------------
 (3) ___lldiv                                             14     6      8     314
                                              2 COMMON     9     1      8
                                              0 BANK0      5     5      0
 ---------------------------------------------------------------------------------
 (1) ___awmod                                              7     3      4    1512
                                             11 COMMON     1     1      0
                                              0 BANK0      6     2      4
                            ___awdiv (ARG)
 ---------------------------------------------------------------------------------
 (1) ___awdiv                                              9     5      4    1516
                                              2 COMMON     9     5      4
 ---------------------------------------------------------------------------------
 (1) _Lcd_Write_String                                     3     3      0     167
                                              5 COMMON     3     3      0
                     _Lcd_Write_Char
 ---------------------------------------------------------------------------------
 (2) _Lcd_Write_Char                                       2     2      0      44
                                              3 COMMON     2     2      0
                           _Lcd_Port
 ---------------------------------------------------------------------------------
 (1) _Lcd_Set_Cursor                                       5     4      1     482
                                              6 COMMON     3     2      1
                            _Lcd_Cmd
 ---------------------------------------------------------------------------------
 (1) _Lcd_Clear                                            0     0      0      44
                            _Lcd_Cmd
 ---------------------------------------------------------------------------------
 (3) _Lcd_Cmd                                              3     3      0      44
                                              3 COMMON     3     3      0
                           _Lcd_Port
 ---------------------------------------------------------------------------------
 (3) _Lcd_Port                                             1     1      0      22
                                              2 COMMON     1     1      0
 ---------------------------------------------------------------------------------
 (1) _I2C_Master_RepeatedStart                             0     0      0       0
                    _I2C_Master_Wait
 ---------------------------------------------------------------------------------
 (1) _I2C_Master_Read                                      6     4      2     577
                                              2 COMMON     6     4      2
                    _I2C_Master_Wait
 ---------------------------------------------------------------------------------
 (3) _I2C_Master_Wait                                      0     0      0       0
 ---------------------------------------------------------------------------------
 Estimated maximum stack depth 3
 ---------------------------------------------------------------------------------
 (Depth) Function   	        Calls       Base Space   Used Autos Params    Refs
 ---------------------------------------------------------------------------------
 (5) _isr                                                  2     2      0       0
                                              0 COMMON     2     2      0
 ---------------------------------------------------------------------------------
 Estimated maximum stack depth 5
 ---------------------------------------------------------------------------------

 Call Graph Graphs:

 _main (ROOT)
   _I2C_Master_Read
     _I2C_Master_Wait
   _I2C_Master_RepeatedStart
     _I2C_Master_Wait
   _I2C_Master_Start
     _I2C_Master_Wait
   _I2C_Master_Stop
     _I2C_Master_Wait
   _I2C_Master_Write
     _I2C_Master_Wait
   _Lcd_Clear
     _Lcd_Cmd
       _Lcd_Port
   _Lcd_Set_Cursor
     _Lcd_Cmd
   _Lcd_Write_Char
     _Lcd_Port
   _Lcd_Write_String
     _Lcd_Write_Char
   ___awdiv
   ___awmod
     ___awdiv (ARG)
   _setup
     _I2C_Master_Init
       ___lldiv
     _Lcd_Init
       _Lcd_Cmd
       _Lcd_Port
   _writeTime
     _I2C_Master_Start
     _I2C_Master_Stop
     _I2C_Master_Write

 _isr (ROOT)

 Address spaces:
Name               Size   Autos  Total    Cost      Usage
BITCOMMON            E      0       0       0        0.0%
EEDATA             100      0       0       0        0.0%
NULL                 0      0       0       0        0.0%
CODE                 0      0       0       0        0.0%
COMMON               E      C       C       1       85.7%
BITSFR0              0      0       0       1        0.0%
SFR0                 0      0       0       1        0.0%
BITSFR1              0      0       0       2        0.0%
SFR1                 0      0       0       2        0.0%
STACK                0      0       0       2        0.0%
ABS                  0      0      41       3        0.0%
BITBANK0            50      0       0       4        0.0%
BITSFR3              0      0       0       4        0.0%
SFR3                 0      0       0       4        0.0%
BANK0               50     1F      35       5       66.2%
BITSFR2              0      0       0       5        0.0%
SFR2                 0      0       0       5        0.0%
BITBANK1            50      0       0       6        0.0%
BANK1               50      0       0       7        0.0%
BITBANK3            60      0       0       8        0.0%
BANK3               60      0       0       9        0.0%
BITBANK2            60      0       0      10        0.0%
BANK2               60      0       0      11        0.0%
DATA                 0      0      41      12        0.0%


Microchip Technology PIC Macro Assembler V2.40 build 20220703182018 
Symbol Table                                                                                   Fri Aug 11 12:41:42 2023

                               pc 0002                                l32 0FB7                                l41 0F9A  
                              l50 0799                                l35 0FC3                                l51 079C  
                              l52 07A1                                l44 0FAC                                l29 073D  
                              l38 0FA3                                l47 0FB6                                _dH 0049  
                    ___awdiv@sign 0078                                _dL 0048                                fsr 0004  
                             l210 0F89                               l213 0FFF                               l222 07E6  
                             l216 0FD0                               l225 06CA                               l234 07C6  
                             l228 07FC                               l362 05BB                               l196 0705  
                             l199 0773                               l492 067D                               l479 0622  
                             _GIE 005F                               _RB1 0031                               _RB2 0032  
                             _RB3 0033                               _RE2 004A                               u710 0595  
                             u711 0594                               u800 05CC                               u801 05CB  
                             u705 057C                               u650 0FBD                               u810 05DD  
                             u730 05B3                               u651 0FBC                               u811 05DC  
                             u731 05B2                               u715 0591                               u660 0FC3  
                             u900 0635                               u740 071D                               u661 0FC2  
                             u901 0634                               u725 05A5                               u750 0795  
                             u830 05EF                               u910 0640                               u670 0566  
                             u751 0794                               u831 05EE                               u911 063F  
                             u671 0565                               u760 07CD                               u761 07CC  
                             u825 05E1                               u745 0718                               u770 07DD  
                             u850 0600                               u930 0652                               u690 057A  
                             u771 07DC                               u851 05FF                               u931 0651  
                             u691 0579                               u780 07C6                               u940 065C  
                             u781 07C5                               u845 05F0                               u941 065B  
                             u925 0644                               u685 056B                               u870 0614  
                             u790 05C1                               u871 0613                               u855 05FC  
                             u791 05C0                               u880 0619                               u960 066F  
                             u881 0618                               u865 0608                               u961 066E  
                             u945 0658                               u970 0674                               u890 062A  
                             u971 0673                               u955 0663                               u891 0629  
                             _day 004A                               _hrH 004C                               _hrL 004B  
                             _isr 0FD1                               _yrH 0043                               _yrL 0042  
                             fsr0 0004                               indf 0000                      ___awmod@sign 0025  
                            l2000 04EB                              l2010 0511                              l2002 04F1  
                            l2020 0535                              l2012 0519                              l2004 04F9  
                            l2022 053D                              l2014 051F                              l2006 0501  
                            l2024 0545                              l2016 0527                              l2008 0509  
                            l2018 052F                              l1500 0FB2                              l1510 07F9  
                            l1502 07E8                              l1440 0FB7                              l1600 07D7  
                            l1504 07EB                              l1520 06A1                              l1512 067E  
                            l1442 0FBD                              l1530 0781                              l1522 0F92  
                            l1450 0FF3                              l1602 07DD                              l1506 07F1  
                            l1610 07B3                              l1514 0684                              l1532 078A  
                            l1524 0F97                              l1452 0FFC                              l1444 0FE7  
                            l1604 07E0                              l1508 07F4                              l1612 07B9  
                            l1620 05C6                              l1460 0576                              l1516 068C  
                            l1534 078F                              l1526 0774                              l1438 0F85  
                            l1446 0FEA                              l1606 07A3                              l1630 05D7  
                            l1622 05C8                              l1614 05BC                              l1470 05A4  
                            l1462 057A                              l1454 0554                              l1518 069B  
                            l1550 06D7                              l1542 06CB                              l1710 0040  
                            l1702 001C                              l1536 0795                              l1528 0779  
                            l1448 0FF0                              l1608 07A6                              l1640 05EF  
                            l1632 05DD                              l1624 05CC                              l1616 05BD  
                            l1472 05AD                              l1464 0583                              l1456 0566  
                            l1480 070A                              l1560 06E3                              l1552 06D8  
                            l1544 06CF                              l1800 01E0                              l1720 0063  
                            l1712 0046                              l1704 0026                              l1538 079D  
                            l1642 0600                              l1634 05E0                              l1650 0614  
                            l1626 05D1                              l1618 05C1                              l1466 0595  
                            l1458 0569                              l1474 05B3                              l1482 070D  
                            l1570 06FA                              l1562 06E8                              l1554 06DB  
                            l1546 06D3                              l1490 0F9B                              l1810 0203  
                            l1802 01EC                              l1730 0082                              l1722 0072  
                            l1714 004A                              l1706 002D                              l1652 0619  
                            l1644 0606                              l1636 05E7                              l1628 05D5  
                            l1660 0626                              l1468 05A3                              l1484 073A  
                            l1580 0701                              l1572 06FD                              l1564 06F7  
                            l1556 06DE                              l1548 06D4                              l1492 0FA0  
                            l1900 036E                              l1812 0205                              l1820 0241  
                            l1804 01F4                              l1732 0084                              l1740 00C0  
                            l1724 0076                              l1716 0059                              l1708 0031  
                            l1654 061E                              l1646 0607                              l1638 05EB  
                            l1670 063A                              l1662 062A                              l1486 073B  
                            l1478 0706                              l1582 0702                              l1574 06FE  
                            l1566 06F8                              l1558 06E2                              l1494 0FA4  
                            l1590 073F                              l1910 0391                              l1902 0373  
                            l1830 025B                              l1822 0249                              l1814 0219  
                            l1806 01FC                              l1750 00E5                              l1742 00C8  
                            l1734 0098                              l1726 007B                              l1718 005F  
                            l1648 060E                              l1680 0652                              l1672 0640  
                            l1664 062F                              l1488 073C                              l1584 0703  
                            l1576 06FF                              l1568 06F9                              l1496 0FA9  
                            l1592 076A                              l1920 03B9                              l1912 039A  
                            l1904 0380                              l1840 0282                              l1832 0267  
                            l1824 024C                              l1816 022D                              l1808 0202  
                            l1760 011B                              l1752 00F9                              l1744 00CE  
                            l1736 00AC                              l1728 0081                              l1594 07C8  
                            l1690 0674                              l1682 065C                              l1674 0643  
                            l1666 0631                              l1658 0623                              l1586 0704  
                            l1578 0700                              l1498 0FAD                              l1930 03E0  
                            l1922 03C6                              l1914 039F                              l1906 0383  
                            l1850 02AE                              l1842 0287                              l1834 026C  
                            l1818 0239                              l1770 0152                              l1762 011C  
                            l1754 0105                              l1746 00CF                              l1738 00B8  
                            l1826 024D                              l1588 0FC4                              l1596 07CD  
                            l1692 0679                              l1684 0662                              l1676 064A  
                            l1668 0635                              l1940 040C                              l1932 03E5  
                            l1924 03C9                              l1916 03A8                              l1908 0388  
                            l1860 02CD                              l1852 02B1                              l1844 0290  
                            l1836 0271                              l1828 0252                              l1780 016B  
                            l1764 011E                              l1772 015A                              l1748 00D1  
                            l1756 010D                              l1598 07D0                              l1686 0669  
                            l1678 064E                              l1950 0465                              l1942 040F  
                            l1934 03EE                              l1926 03CE                              l1918 03B4  
                            l1870 02F7                              l1862 02D6                              l1854 02B6  
                            l1846 029C                              l1838 027A                              l1790 01AF  
                            l1782 017F                              l1774 0162                              l1766 0132  
                            l1758 0115                              l1688 066F                              l1960 048B  
                            l1952 046B                              l1944 0424                              l1936 03FA  
                            l1928 03D7                              l1880 031C                              l1872 02FC  
                            l1864 02E2                              l1856 02BF                              l1848 02A1  
                            l1792 01B5                              l1784 0193                              l1776 0168  
                            l1768 0146                              l1970 049C                              l1962 0490  
                            l1954 0473                              l1946 0448                              l1938 03FF  
                            l1890 0342                              l1882 0328                              l1874 0305  
                            l1866 02E7                              l1858 02C8                              l1794 01B6  
                            l1786 019F                              l1778 0169                              l1980 04AB  
                            l1972 049F                              l1964 0493                              l1956 047B  
                            l1948 045D                              l1892 034B                              l1884 032D  
                            l1876 030E                              l1868 02F4                              l1796 01B8  
                            l1788 01A7                              l1990 04C9                              l1982 04AE  
                            l1974 04A2                              l1966 0496                              l1958 0483  
                            l1894 0354                              l1886 033A                              l1878 0313  
                            l1798 01CC                              l1992 04CF                              l1984 04B1  
                            l1976 04A5                              l1968 0499                              l1896 0359  
                            l1888 033D                              l1994 04D7                              l1986 04B9  
                            l1978 04A8                              l1898 0362                              l1996 04DF  
                            l1988 04C1                              l1998 04E5                              ?_isr 0070  
                            STR_1 0806                              u1000 002D                              u1001 002C  
                            u1010 0031                              u1011 0030                              u1100 0115  
                            u1020 004A                              u1101 0114                              u1021 0049  
                            u1110 011B                              u1030 0063                              u1111 011A  
                            u1031 0062                              u1200 0202                              u1040 007B  
                            u1201 0201                              u1041 007A                              u1130 0162  
                            u1050 0081                              u1131 0161                              u1051 0080  
                            u1220 0249                              u1140 0168                              u1221 0248  
                            u1141 0167                              u1125 0149                              u1070 00C8  
                            u1215 0230                              u1071 00C7                              u1160 01AF  
                            u1080 00CE                              u1161 01AE                              u1081 00CD  
                            u1065 00AF                              u1170 01B5                              u1235 02A6  
                            u1171 01B4                              u1155 0196                              u1307 0052  
                            u1245 02EC                              u1317 006B                              u1190 01FC  
                            u1327 054B                              u1255 0332                              u1191 01FB  
                            u1095 00FC                              u1337 076E                              u1265 0378  
                            u1185 01E3                              u1347 0688                              u1275 03BE  
                            u1357 0696                              u1285 0404                              u1367 06A3  
                            u1377 07F6                              u1297 0039                              u1387 0FF7  
                            _PEIE 005E                 ?_Lcd_Write_String 0070  __end_of_I2C_Master_RepeatedStart 0F9B  
                            _main 001C                              _minH 004F                              _minL 004E  
                            _secH 0052                              _secL 0051                              _monH 0046  
                            _monL 0045                              _year 0044                              btemp 007E  
                            start 000C                ??_Lcd_Write_String 0075                   __end_of_Lcd_Cmd 1000  
                           ??_isr 0070                  ?_I2C_Master_Init 0025                  ?_I2C_Master_Read 0072  
                ?_I2C_Master_Wait 0070                  ?_I2C_Master_Stop 0070                             ?_main 0070  
                 __end_of___awdiv 0623                   __end_of___awmod 067E                             _ANSEL 0188  
                 __end_of___lldiv 05BC                   ___awdiv@divisor 0072                             i1l167 0FDE  
                           i1l168 0FDF                   ___awdiv@counter 0077                             _PORTB 0006  
                           _PORTD 0008                             _TRISB 0086                             _TRISD 0088  
                           _SSPIE 0463                             _TRISE 0089                             _SSPIF 0063  
                           u98_20 0FD5                             u98_21 0FD4                             u99_20 0FDB  
                           u99_21 0FDA                             _hours 004D                             _month 0047  
                           _setup 06CB                             pclath 000A                             status 0003  
                           wtemp0 007E                  __end_of_Lcd_Init 06CB                  __end_of_Lcd_Port 0F8A  
                 __initialization 000F                      __end_of_main 0554                            ??_main 002D  
               ?_I2C_Master_Start 0070                 ?_I2C_Master_Write 0072                ??_I2C_Master_Start 0072  
              ??_I2C_Master_Write 0074                  ___awdiv@dividend 0074                            ?_setup 0070  
                          _ANSELH 0189                            i1l1700 0FDB                            i1l1696 0FD1  
                          i1l1698 0FD5                         ??_Lcd_Cmd 0073                            _SSPADD 0093  
                          _TRISC3 043B                            _TRISC4 043C                            _SSPCON 0014  
                          _SSPBUF 0013          _I2C_Master_RepeatedStart 0F92                         ??___awdiv 0076  
                       ??___awmod 007B                         ??___lldiv 007A                  ___awdiv@quotient 0079  
                 ___awmod@divisor 0020                   ___awmod@counter 0024                            saved_w 007E  
                 Lcd_Set_Cursor@a 0077                   Lcd_Set_Cursor@b 0076           __end_of__initialization 0018  
               __end_of_Lcd_Clear 0FD1                    __pcstackCOMMON 0070                     __end_of_setup 0706  
                  _Lcd_Set_Cursor 07C7                    _OPTION_REGbits 0081                         ?_Lcd_Init 0070  
                       ?_Lcd_Port 0070                           ??_setup 007B                        __pbssBANK0 003F  
                      __pmaintext 001C                        __pintentry 0004            __end_of_Lcd_Set_Cursor 07E7  
                      ??_Lcd_Init 0076                        ??_Lcd_Port 0072                           _SSPCON2 0091  
                         _SSPSTAT 0094                        __stringtab 0800                    _Lcd_Write_Char 07E7  
                         _Lcd_Cmd 0FE6                           ___awdiv 05BC                           ___awmod 0623  
                         ___lldiv 0554                           _adc_val 0054                   ?_Lcd_Set_Cursor 0076  
                         __ptext1 073E                           __ptext2 0FAD                           __ptext3 0FA4  
                         __ptext4 0F9B                           __ptext5 06CB                           __ptext6 067E  
                         __ptext7 0706                           __ptext8 0554                           __ptext9 0623  
                ___awmod@dividend 0022                           _minutes 0050                           _seconds 0053  
                         main@ADC 003C                           main@hrs 0034                           clrloop0 0F8B  
          __end_of_Lcd_Write_Char 07FD              end_of_initialization 0018        ??_I2C_Master_RepeatedStart 0072  
                 ___lldiv@divisor 0072                   ___lldiv@counter 0024                  I2C_Master_Init@c 0025  
                I2C_Master_Read@a 0072                         Lcd_Port@a 0072                         _PORTBbits 0006  
                       _PORTEbits 0009                 __end_of_writeTime 0774                      writeTime@dir 0077  
                       _TRISCbits 0087                   ?_Lcd_Write_Char 0070                 Lcd_Write_String@a 0077  
               Lcd_Write_String@i 0075                        main@months 0038                         _Lcd_Clear 0FC4  
                _Lcd_Write_String 07A2               start_initialization 000F                       __end_of_isr 0FE6  
               ??_I2C_Master_Init 0029                 ??_I2C_Master_Read 0074                 ??_I2C_Master_Wait 0072  
               ??_I2C_Master_Stop 0072                        ?_Lcd_Clear 0070                   Lcd_Write_Char@a 0074  
                       ___latbits 0002                     __pcstackBANK0 0020                          ?_Lcd_Cmd 0070  
                _I2C_Master_Start 0F9B                  _I2C_Master_Write 0FAD                  ??_Lcd_Set_Cursor 0077  
                        ?___awdiv 0072                          ?___awmod 0020                          ?___lldiv 0072  
                       __pstrings 0800                         _escritura 0041                 interrupt_function 0004  
                        _IOCBbits 0096                         clear_ram0 0F8A                          Lcd_Cmd@a 0075  
                     ??_Lcd_Clear 0076                       __stringbase 0805                          _WPUBbits 0095  
                ??_Lcd_Write_Char 0073                         main@years 003A                          _Lcd_Init 067E  
                        _Lcd_Port 0F84                         _writeTime 073E               I2C_Master_Read@temp 0076  
        __end_of_Lcd_Write_String 07C7         ?_I2C_Master_RepeatedStart 0070                __end_of__stringtab 0806  
                 _I2C_Master_Init 0706                   _I2C_Master_Read 0774                   _I2C_Master_Wait 0FB7  
                 _I2C_Master_Stop 0FA4                          __ptext10 05BC                          __ptext11 07A2  
                        __ptext20 0FD1                          __ptext12 07E7                          __ptext13 07C7  
                        __ptext14 0FC4                          __ptext15 0FE6                          __ptext16 0F84  
                        __ptext17 0F92                          __ptext18 0774                          __ptext19 0FB7  
                      ?_writeTime 0074                          _contador 003F                          _selector 0040  
                      writeTime@d 0074                          main@days 0036                          main@mins 0032  
                        main@segs 0030          __end_of_I2C_Master_Start 0FA4          __end_of_I2C_Master_Write 0FB7  
                      _INTCONbits 000B                          intlevel1 0000                  ___lldiv@dividend 0076  
                       stringcode 0800                        _OSCCONbits 008F           __end_of_I2C_Master_Init 073E  
         __end_of_I2C_Master_Read 07A2           __end_of_I2C_Master_Wait 0FC4           __end_of_I2C_Master_Stop 0FAD  
              Lcd_Set_Cursor@temp 0078                  ___lldiv@quotient 0020                 I2C_Master_Write@d 0072  
                        stringdir 0800                          stringtab 0800                       _SSPCON2bits 0091  
                     ??_writeTime 0075  
